///////////////////////////////////////////////////////////////////////////////
//                                                                            /
// IAR C/C++ Compiler V7.51A/W32 for 8051               14/Feb/2012  12:43:54 /
// Copyright 2004-2009 IAR Systems AB.                                        /
//                                                                            /
//    Core               =  plain                                             /
//    Code model         =  banked                                            /
//    Data model         =  large                                             /
//    Calling convention =  xdata reentrant                                   /
//    Constant location  =  data_rom                                          /
//    Dptr setup         =  1,16                                              /
//    Source file        =  F:\ZIGBEE2007PRO\ZigBee2007_PRO程序\ZigBee2007_PR /
//                          O程序\Texas Instruments\ZStack-CC2530-2.2.0-1.3.0 /
//                          \Projects\zstack\Samples\SimpleApp\Source\SimpleS /
//                          ensor.c                                           /
//    Command line       =  -f "F:\ZIGBEE2007PRO\ZigBee2007_PRO程序\ZigBee200 /
//                          7_PRO程序\Texas Instruments\ZStack-CC2530-2.2.0-1 /
//                          .3.0\Projects\zstack\Samples\SimpleApp\CC2530DB\. /
//                          .\..\..\Tools\CC2530DB\f8wEndev.cfg" (-DCPU32MHZ  /
//                          -DROOT=__near_func -DBLINK_LEDS) -f               /
//                          "F:\ZIGBEE2007PRO\ZigBee2007_PRO程序\ZigBee2007_P /
//                          RO程序\Texas Instruments\ZStack-CC2530-2.2.0-1.3. /
//                          0\Projects\zstack\Samples\SimpleApp\CC2530DB\..\. /
//                          .\..\Tools\CC2530DB\f8wConfig.cfg" (-DSECURE=0    /
//                          -DZG_SECURE_DYNAMIC=0 -DREFLECTOR                 /
//                          -DDEFAULT_CHANLIST=0x04000000                     /
//                          -DZDAPP_CONFIG_PAN_ID=0xFFFF                      /
//                          -DNWK_START_DELAY=100 -DEXTENDED_JOINING_RANDOM_M /
//                          ASK=0x007F -DBEACON_REQUEST_DELAY=100             /
//                          -DBEACON_REQ_DELAY_MASK=0x00FF                    /
//                          -DROUTE_EXPIRY_TIME=30 -DAPSC_ACK_WAIT_DURATION_P /
//                          OLLED=3000 -DNWK_INDIRECT_MSG_TIMEOUT=7           /
//                          -DMAX_RREQ_ENTRIES=8 -DAPSC_MAX_FRAME_RETRIES=3   /
//                          -DNWK_MAX_DATA_RETRIES=2                          /
//                          -DMAX_POLL_FAILURE_RETRIES=2 -DMAX_BCAST=9        /
//                          -DAPS_MAX_GROUPS=16 -DMAX_RTG_ENTRIES=40          /
//                          -DNWK_MAX_BINDING_ENTRIES=4                       /
//                          -DMAX_BINDING_CLUSTER_IDS=4                       /
//                          "-DDEFAULT_KEY={0x01, 0x03, 0x05, 0x07, 0x09,     /
//                          0x0B, 0x0D, 0x0F, 0x00, 0x02, 0x04, 0x06, 0x08,   /
//                          0x0A, 0x0C, 0x0D}" -DMAC_MAX_FRAME_SIZE=116       /
//                          "-DCONST=const __code" -DGENERIC=__generic        /
//                          -DRFD_RCVC_ALWAYS_ON=FALSE -DPOLL_RATE=1000       /
//                          -DQUEUED_POLL_RATE=100 -DRESPONSE_POLL_RATE=100)  /
//                          -DREJOIN_POLL_RATE=440 "F:\ZIGBEE2007PRO\ZigBee20 /
//                          07_PRO程序\ZigBee2007_PRO程序\Texas               /
//                          Instruments\ZStack-CC2530-2.2.0-1.3.0\Projects\zs /
//                          tack\Samples\SimpleApp\Source\SimpleSensor.c" -D  /
//                          NWK_AUTO_POLL -D HOLD_AUTO_START -D REFLECTOR -D  /
//                          POWER_SAVING -D LCD_SUPPORTED -D NV_INIT -D       /
//                          xNV_RESTORE -D xZTOOL_P1 -D xMT_TASK -D           /
//                          xMT_SYS_FUNC -D xMT_SAPI_FUNC -D                  /
//                          xMT_SAPI_CB_FUNC -lC "F:\ZIGBEE2007PRO\ZigBee2007 /
//                          _PRO程序\ZigBee2007_PRO程序\Texas                 /
//                          Instruments\ZStack-CC2530-2.2.0-1.3.0\Projects\zs /
//                          tack\Samples\SimpleApp\CC2530DB\SimpleSensorEB\Li /
//                          st\" -lA "F:\ZIGBEE2007PRO\ZigBee2007_PRO程序\Zig /
//                          Bee2007_PRO程序\Texas Instruments\ZStack-CC2530-2 /
//                          .2.0-1.3.0\Projects\zstack\Samples\SimpleApp\CC25 /
//                          30DB\SimpleSensorEB\List\" --diag_suppress        /
//                          Pe001,Pa010 -o "F:\ZIGBEE2007PRO\ZigBee2007_PRO程 /
//                          序\ZigBee2007_PRO程序\Texas                       /
//                          Instruments\ZStack-CC2530-2.2.0-1.3.0\Projects\zs /
//                          tack\Samples\SimpleApp\CC2530DB\SimpleSensorEB\Ob /
//                          j\" -e --require_prototypes --debug --core=plain  /
//                          --dptr=16,1 --data_model=large                    /
//                          --code_model=banked --calling_convention=xdata_re /
//                          entrant --place_constants=data_rom                /
//                          --nr_virtual_regs 8 -I "F:\ZIGBEE2007PRO\ZigBee20 /
//                          07_PRO程序\ZigBee2007_PRO程序\Texas               /
//                          Instruments\ZStack-CC2530-2.2.0-1.3.0\Projects\zs /
//                          tack\Samples\SimpleApp\CC2530DB\" -I              /
//                          "F:\ZIGBEE2007PRO\ZigBee2007_PRO程序\ZigBee2007_P /
//                          RO程序\Texas Instruments\ZStack-CC2530-2.2.0-1.3. /
//                          0\Projects\zstack\Samples\SimpleApp\CC2530DB\..\S /
//                          OURCE\" -I "F:\ZIGBEE2007PRO\ZigBee2007_PRO程序\Z /
//                          igBee2007_PRO程序\Texas                           /
//                          Instruments\ZStack-CC2530-2.2.0-1.3.0\Projects\zs /
//                          tack\Samples\SimpleApp\CC2530DB\..\..\..\ZMAIN\TI /
//                          2530DB\" -I "F:\ZIGBEE2007PRO\ZigBee2007_PRO程序\ /
//                          ZigBee2007_PRO程序\Texas                          /
//                          Instruments\ZStack-CC2530-2.2.0-1.3.0\Projects\zs /
//                          tack\Samples\SimpleApp\CC2530DB\..\..\..\..\..\CO /
//                          MPONENTS\MT\" -I "F:\ZIGBEE2007PRO\ZigBee2007_PRO /
//                          程序\ZigBee2007_PRO程序\Texas                     /
//                          Instruments\ZStack-CC2530-2.2.0-1.3.0\Projects\zs /
//                          tack\Samples\SimpleApp\CC2530DB\..\..\..\..\..\CO /
//                          MPONENTS\HAL\INCLUDE\" -I                         /
//                          "F:\ZIGBEE2007PRO\ZigBee2007_PRO程序\ZigBee2007_P /
//                          RO程序\Texas Instruments\ZStack-CC2530-2.2.0-1.3. /
//                          0\Projects\zstack\Samples\SimpleApp\CC2530DB\..\. /
//                          .\..\..\..\COMPONENTS\HAL\TARGET\CC2530EB\" -I    /
//                          "F:\ZIGBEE2007PRO\ZigBee2007_PRO程序\ZigBee2007_P /
//                          RO程序\Texas Instruments\ZStack-CC2530-2.2.0-1.3. /
//                          0\Projects\zstack\Samples\SimpleApp\CC2530DB\..\. /
//                          .\..\..\..\COMPONENTS\OSAL\MCU\CCSOC\" -I         /
//                          "F:\ZIGBEE2007PRO\ZigBee2007_PRO程序\ZigBee2007_P /
//                          RO程序\Texas Instruments\ZStack-CC2530-2.2.0-1.3. /
//                          0\Projects\zstack\Samples\SimpleApp\CC2530DB\..\. /
//                          .\..\..\..\COMPONENTS\OSAL\INCLUDE\" -I           /
//                          "F:\ZIGBEE2007PRO\ZigBee2007_PRO程序\ZigBee2007_P /
//                          RO程序\Texas Instruments\ZStack-CC2530-2.2.0-1.3. /
//                          0\Projects\zstack\Samples\SimpleApp\CC2530DB\..\. /
//                          .\..\..\..\COMPONENTS\STACK\AF\" -I               /
//                          "F:\ZIGBEE2007PRO\ZigBee2007_PRO程序\ZigBee2007_P /
//                          RO程序\Texas Instruments\ZStack-CC2530-2.2.0-1.3. /
//                          0\Projects\zstack\Samples\SimpleApp\CC2530DB\..\. /
//                          .\..\..\..\COMPONENTS\STACK\NWK\" -I              /
//                          "F:\ZIGBEE2007PRO\ZigBee2007_PRO程序\ZigBee2007_P /
//                          RO程序\Texas Instruments\ZStack-CC2530-2.2.0-1.3. /
//                          0\Projects\zstack\Samples\SimpleApp\CC2530DB\..\. /
//                          .\..\..\..\COMPONENTS\STACK\SEC\" -I              /
//                          "F:\ZIGBEE2007PRO\ZigBee2007_PRO程序\ZigBee2007_P /
//                          RO程序\Texas Instruments\ZStack-CC2530-2.2.0-1.3. /
//                          0\Projects\zstack\Samples\SimpleApp\CC2530DB\..\. /
//                          .\..\..\..\COMPONENTS\STACK\SAPI\" -I             /
//                          "F:\ZIGBEE2007PRO\ZigBee2007_PRO程序\ZigBee2007_P /
//                          RO程序\Texas Instruments\ZStack-CC2530-2.2.0-1.3. /
//                          0\Projects\zstack\Samples\SimpleApp\CC2530DB\..\. /
//                          .\..\..\..\COMPONENTS\STACK\SYS\" -I              /
//                          "F:\ZIGBEE2007PRO\ZigBee2007_PRO程序\ZigBee2007_P /
//                          RO程序\Texas Instruments\ZStack-CC2530-2.2.0-1.3. /
//                          0\Projects\zstack\Samples\SimpleApp\CC2530DB\..\. /
//                          .\..\..\..\COMPONENTS\STACK\ZDO\" -I              /
//                          "F:\ZIGBEE2007PRO\ZigBee2007_PRO程序\ZigBee2007_P /
//                          RO程序\Texas Instruments\ZStack-CC2530-2.2.0-1.3. /
//                          0\Projects\zstack\Samples\SimpleApp\CC2530DB\..\. /
//                          .\..\..\..\COMPONENTS\ZMAC\F8W\" -I               /
//                          "F:\ZIGBEE2007PRO\ZigBee2007_PRO程序\ZigBee2007_P /
//                          RO程序\Texas Instruments\ZStack-CC2530-2.2.0-1.3. /
//                          0\Projects\zstack\Samples\SimpleApp\CC2530DB\..\. /
//                          .\..\..\..\COMPONENTS\ZMAC\" -I                   /
//                          "F:\ZIGBEE2007PRO\ZigBee2007_PRO程序\ZigBee2007_P /
//                          RO程序\Texas Instruments\ZStack-CC2530-2.2.0-1.3. /
//                          0\Projects\zstack\Samples\SimpleApp\CC2530DB\..\. /
//                          .\..\..\..\COMPONENTS\SERVICES\SADDR\" -I         /
//                          "F:\ZIGBEE2007PRO\ZigBee2007_PRO程序\ZigBee2007_P /
//                          RO程序\Texas Instruments\ZStack-CC2530-2.2.0-1.3. /
//                          0\Projects\zstack\Samples\SimpleApp\CC2530DB\..\. /
//                          .\..\..\..\COMPONENTS\SERVICES\SDATA\" -I         /
//                          "F:\ZIGBEE2007PRO\ZigBee2007_PRO程序\ZigBee2007_P /
//                          RO程序\Texas Instruments\ZStack-CC2530-2.2.0-1.3. /
//                          0\Projects\zstack\Samples\SimpleApp\CC2530DB\..\. /
//                          .\..\..\..\COMPONENTS\MAC\INCLUDE\" -I            /
//                          "F:\ZIGBEE2007PRO\ZigBee2007_PRO程序\ZigBee2007_P /
//                          RO程序\Texas Instruments\ZStack-CC2530-2.2.0-1.3. /
//                          0\Projects\zstack\Samples\SimpleApp\CC2530DB\..\. /
//                          .\..\..\..\COMPONENTS\MAC\HIGH_LEVEL\" -I         /
//                          "F:\ZIGBEE2007PRO\ZigBee2007_PRO程序\ZigBee2007_P /
//                          RO程序\Texas Instruments\ZStack-CC2530-2.2.0-1.3. /
//                          0\Projects\zstack\Samples\SimpleApp\CC2530DB\..\. /
//                          .\..\..\..\COMPONENTS\MAC\LOW_LEVEL\srf04\" -I    /
//                          "F:\ZIGBEE2007PRO\ZigBee2007_PRO程序\ZigBee2007_P /
//                          RO程序\Texas Instruments\ZStack-CC2530-2.2.0-1.3. /
//                          0\Projects\zstack\Samples\SimpleApp\CC2530DB\..\. /
//                          .\..\..\..\COMPONENTS\MAC\LOW_LEVEL\srf04\SINGLE_ /
//                          CHIP\" -I "D:\Program Files\IAR Systems\Embedded  /
//                          Workbench 5.3 Evaluation                          /
//                          version(7.51)\8051\INC\" -I "D:\Program           /
//                          Files\IAR Systems\Embedded Workbench 5.3          /
//                          Evaluation version(7.51)\8051\INC\CLIB\" -Ohz     /
//    List file          =  F:\ZIGBEE2007PRO\ZigBee2007_PRO程序\ZigBee2007_PR /
//                          O程序\Texas Instruments\ZStack-CC2530-2.2.0-1.3.0 /
//                          \Projects\zstack\Samples\SimpleApp\CC2530DB\Simpl /
//                          eSensorEB\List\SimpleSensor.s51                   /
//                                                                            /
//                                                                            /
///////////////////////////////////////////////////////////////////////////////

        NAME SimpleSensor

        RTMODEL "__calling_convention", "xdata_reentrant"
        RTMODEL "__code_model", "banked"
        RTMODEL "__core", "plain"
        RTMODEL "__data_model", "large"
        RTMODEL "__dptr_size", "16"
        RTMODEL "__extended_stack", "disabled"
        RTMODEL "__location_for_constants", "data"
        RTMODEL "__number_of_dptrs", "1"
        RTMODEL "__rt_version", "1"

        RSEG DOVERLAY:DATA:NOROOT(0)
        RSEG IOVERLAY:IDATA:NOROOT(0)
        RSEG ISTACK:IDATA:NOROOT(0)
        RSEG PSTACK:XDATA:NOROOT(0)
        RSEG XSTACK:XDATA:NOROOT(0)

        EXTERN ?ALLOC_XSTACK8
        EXTERN ?BANKED_ENTER_XDATA
        EXTERN ?BANKED_LEAVE_XDATA
        EXTERN ?BDISPATCH
        EXTERN ?BRET
        EXTERN ?DEALLOC_XSTACK8
        EXTERN ?FLT_MUL
        EXTERN ?FLT_TO_L
        EXTERN ?L_MOV_X
        EXTERN ?PUSH_XSTACK_I_ONE
        EXTERN ?PUSH_XSTACK_I_TWO
        EXTERN ?UL_TO_FLT
        EXTERN ?US_DIV_MOD
        EXTERN ?US_SHR
        EXTERN ?V0
        EXTERN ?XSP
        EXTERN ?XSTACK_DISP0_8
        EXTERN __INIT_XDATA_I
        EXTERN __INIT_XDATA_Z

        PUBLIC ??zb_AllowBindConfirm?relay
        FUNCTION ??zb_AllowBindConfirm?relay,0203H
        PUBLIC ??zb_BindConfirm?relay
        FUNCTION ??zb_BindConfirm?relay,0203H
        PUBLIC ??zb_FindDeviceConfirm?relay
        FUNCTION ??zb_FindDeviceConfirm?relay,0203H
        PUBLIC ??zb_HandleKeys?relay
        FUNCTION ??zb_HandleKeys?relay,0203H
        PUBLIC ??zb_HandleOsalEvent?relay
        FUNCTION ??zb_HandleOsalEvent?relay,0203H
        PUBLIC ??zb_ReceiveDataIndication?relay
        FUNCTION ??zb_ReceiveDataIndication?relay,0203H
        PUBLIC ??zb_SendDataConfirm?relay
        FUNCTION ??zb_SendDataConfirm?relay,0203H
        PUBLIC ??zb_StartConfirm?relay
        FUNCTION ??zb_StartConfirm?relay,0203H
        PUBWEAK ADCCON3
        PUBWEAK ADCH
        PUBWEAK ADCL
        PUBWEAK _A_TCON
        PUBWEAK __Constant_42160000
        PUBLIC zb_AllowBindConfirm
        FUNCTION zb_AllowBindConfirm,0203H
        ARGFRAME XSTACK, 0, STACK
        PUBLIC zb_BindConfirm
        FUNCTION zb_BindConfirm,021203H
        ARGFRAME XSTACK, 0, STACK
        LOCFRAME ISTACK, 2, STACK
        PUBLIC zb_FindDeviceConfirm
        FUNCTION zb_FindDeviceConfirm,0203H
        ARGFRAME XSTACK, 0, STACK
        PUBLIC zb_HandleKeys
        FUNCTION zb_HandleKeys,021203H
        ARGFRAME XSTACK, 0, STACK
        LOCFRAME ISTACK, 1, STACK
        LOCFRAME XSTACK, 11, STACK
        PUBLIC zb_HandleOsalEvent
        FUNCTION zb_HandleOsalEvent,021203H
        ARGFRAME XSTACK, 0, STACK
        LOCFRAME ISTACK, 1, STACK
        LOCFRAME XSTACK, 23, STACK
        PUBLIC zb_OutCmdList
        PUBLIC zb_ReceiveDataIndication
        FUNCTION zb_ReceiveDataIndication,0203H
        ARGFRAME XSTACK, 4, STACK
        PUBLIC zb_SendDataConfirm
        FUNCTION zb_SendDataConfirm,021203H
        ARGFRAME XSTACK, 0, STACK
        LOCFRAME ISTACK, 2, STACK
        PUBLIC zb_SimpleDesc
        PUBLIC zb_StartConfirm
        FUNCTION zb_StartConfirm,021203H
        ARGFRAME XSTACK, 0, STACK
        LOCFRAME ISTACK, 2, STACK
        
        CFI Names cfiNames0
        CFI StackFrame CFA_SP SP IDATA
        CFI StackFrame CFA_PSP16 PSP16 XDATA
        CFI StackFrame CFA_XSP16 XSP16 XDATA
        CFI StaticOverlayFrame CFA_IOVERLAY IOVERLAY
        CFI StaticOverlayFrame CFA_DOVERLAY DOVERLAY
        CFI Resource `PSW.CY`:1, `B.BR0`:1, `B.BR1`:1, `B.BR2`:1, `B.BR3`:1
        CFI Resource `B.BR4`:1, `B.BR5`:1, `B.BR6`:1, `B.BR7`:1, `VB.BR8`:1
        CFI Resource `VB.BR9`:1, `VB.BR10`:1, `VB.BR11`:1, `VB.BR12`:1
        CFI Resource `VB.BR13`:1, `VB.BR14`:1, `VB.BR15`:1, VB:8, B:8, A:8
        CFI Resource PSW:8, DPL0:8, DPH0:8, R0:8, R1:8, R2:8, R3:8, R4:8, R5:8
        CFI Resource R6:8, R7:8, V0:8, V1:8, V2:8, V3:8, V4:8, V5:8, V6:8, V7:8
        CFI Resource SP:8, PSPH:8, PSPL:8, PSP16:16, XSPH:8, XSPL:8, XSP16:16
        CFI VirtualResource ?RET:24
        CFI Resource ?BRET_EXT:8
        CFI VirtualResource ?RET_HIGH:8, ?RET_LOW:8
        CFI ResourceParts PSP16 PSPH, PSPL
        CFI ResourceParts XSP16 XSPH, XSPL
        CFI ResourceParts ?RET ?BRET_EXT, ?RET_HIGH, ?RET_LOW
        CFI EndNames cfiNames0
        
        CFI Common cfiCommon0 Using cfiNames0
        CFI CodeAlign 1
        CFI DataAlign -1
        CFI ReturnAddress ?RET CODE
        CFI CFA_DOVERLAY Used
        CFI CFA_IOVERLAY Used
        CFI CFA_SP SP+-3
        CFI CFA_PSP16 PSP16+0
        CFI CFA_XSP16 XSP16+0
        CFI `PSW.CY` SameValue
        CFI `B.BR0` SameValue
        CFI `B.BR1` SameValue
        CFI `B.BR2` SameValue
        CFI `B.BR3` SameValue
        CFI `B.BR4` SameValue
        CFI `B.BR5` SameValue
        CFI `B.BR6` SameValue
        CFI `B.BR7` SameValue
        CFI `VB.BR8` SameValue
        CFI `VB.BR9` SameValue
        CFI `VB.BR10` SameValue
        CFI `VB.BR11` SameValue
        CFI `VB.BR12` SameValue
        CFI `VB.BR13` SameValue
        CFI `VB.BR14` SameValue
        CFI `VB.BR15` SameValue
        CFI VB SameValue
        CFI B Undefined
        CFI A Undefined
        CFI PSW SameValue
        CFI DPL0 SameValue
        CFI DPH0 SameValue
        CFI R0 Undefined
        CFI R1 Undefined
        CFI R2 Undefined
        CFI R3 Undefined
        CFI R4 Undefined
        CFI R5 Undefined
        CFI R6 SameValue
        CFI R7 SameValue
        CFI V0 SameValue
        CFI V1 SameValue
        CFI V2 SameValue
        CFI V3 SameValue
        CFI V4 SameValue
        CFI V5 SameValue
        CFI V6 SameValue
        CFI V7 SameValue
        CFI PSPH Undefined
        CFI PSPL Undefined
        CFI XSPH Undefined
        CFI XSPL Undefined
        CFI ?RET Concat
        CFI ?BRET_EXT Frame(CFA_SP, 3)
        CFI ?RET_HIGH Frame(CFA_SP, 2)
        CFI ?RET_LOW Frame(CFA_SP, 1)
        CFI EndCommon cfiCommon0
        
        
        CFI Common cfiCommon1 Using cfiNames0
        CFI CodeAlign 1
        CFI DataAlign -1
        CFI ReturnAddress ?RET CODE
        CFI CFA_DOVERLAY Used
        CFI CFA_IOVERLAY Used
        CFI CFA_SP SP+-2
        CFI CFA_PSP16 PSP16+0
        CFI CFA_XSP16 XSP16+0
        CFI `PSW.CY` SameValue
        CFI `B.BR0` SameValue
        CFI `B.BR1` SameValue
        CFI `B.BR2` SameValue
        CFI `B.BR3` SameValue
        CFI `B.BR4` SameValue
        CFI `B.BR5` SameValue
        CFI `B.BR6` SameValue
        CFI `B.BR7` SameValue
        CFI `VB.BR8` SameValue
        CFI `VB.BR9` SameValue
        CFI `VB.BR10` SameValue
        CFI `VB.BR11` SameValue
        CFI `VB.BR12` SameValue
        CFI `VB.BR13` SameValue
        CFI `VB.BR14` SameValue
        CFI `VB.BR15` SameValue
        CFI VB SameValue
        CFI B SameValue
        CFI A SameValue
        CFI PSW SameValue
        CFI DPL0 SameValue
        CFI DPH0 SameValue
        CFI R0 SameValue
        CFI R1 SameValue
        CFI R2 SameValue
        CFI R3 SameValue
        CFI R4 SameValue
        CFI R5 SameValue
        CFI R6 SameValue
        CFI R7 SameValue
        CFI V0 SameValue
        CFI V1 SameValue
        CFI V2 SameValue
        CFI V3 SameValue
        CFI V4 SameValue
        CFI V5 SameValue
        CFI V6 SameValue
        CFI V7 SameValue
        CFI PSPH Undefined
        CFI PSPL Undefined
        CFI XSPH Undefined
        CFI XSPL Undefined
        CFI ?RET Concat
        CFI ?BRET_EXT SameValue
        CFI ?RET_HIGH Frame(CFA_SP, 2)
        CFI ?RET_LOW Frame(CFA_SP, 1)
        CFI EndCommon cfiCommon1
        
zb_StartRequest     SYMBOL "zb_StartRequest"
zb_SendDataRequest  SYMBOL "zb_SendDataRequest"
osal_start_timerEx  SYMBOL "osal_start_timerEx"
zb_BindDevice       SYMBOL "zb_BindDevice"
zb_WriteConfiguration SYMBOL "zb_WriteConfiguration"
zb_ReadConfiguration SYMBOL "zb_ReadConfiguration"
zb_SystemReset      SYMBOL "zb_SystemReset"
osal_stop_timerEx   SYMBOL "osal_stop_timerEx"
HalLedSet           SYMBOL "HalLedSet"
??HalLedSet?relay   SYMBOL "?relay", HalLedSet
??osal_start_timerEx?relay SYMBOL "?relay", osal_start_timerEx
??osal_stop_timerEx?relay SYMBOL "?relay", osal_stop_timerEx
??zb_BindDevice?relay SYMBOL "?relay", zb_BindDevice
??zb_ReadConfiguration?relay SYMBOL "?relay", zb_ReadConfiguration
??zb_SendDataRequest?relay SYMBOL "?relay", zb_SendDataRequest
??zb_StartRequest?relay SYMBOL "?relay", zb_StartRequest
??zb_SystemReset?relay SYMBOL "?relay", zb_SystemReset
??zb_WriteConfiguration?relay SYMBOL "?relay", zb_WriteConfiguration
zb_AllowBindConfirm SYMBOL "zb_AllowBindConfirm"
??zb_AllowBindConfirm?relay SYMBOL "?relay", zb_AllowBindConfirm
zb_BindConfirm      SYMBOL "zb_BindConfirm"
??zb_BindConfirm?relay SYMBOL "?relay", zb_BindConfirm
zb_FindDeviceConfirm SYMBOL "zb_FindDeviceConfirm"
??zb_FindDeviceConfirm?relay SYMBOL "?relay", zb_FindDeviceConfirm
zb_HandleKeys       SYMBOL "zb_HandleKeys"
??zb_HandleKeys?relay SYMBOL "?relay", zb_HandleKeys
zb_HandleOsalEvent  SYMBOL "zb_HandleOsalEvent"
??zb_HandleOsalEvent?relay SYMBOL "?relay", zb_HandleOsalEvent
zb_ReceiveDataIndication SYMBOL "zb_ReceiveDataIndication"
??zb_ReceiveDataIndication?relay SYMBOL "?relay", zb_ReceiveDataIndication
zb_SendDataConfirm  SYMBOL "zb_SendDataConfirm"
??zb_SendDataConfirm?relay SYMBOL "?relay", zb_SendDataConfirm
zb_StartConfirm     SYMBOL "zb_StartConfirm"
??zb_StartConfirm?relay SYMBOL "?relay", zb_StartConfirm

        EXTERN zb_StartRequest
        FUNCTION zb_StartRequest,0202H
        ARGFRAME ISTACK, 0, STACK
        ARGFRAME PSTACK, 0, STACK
        ARGFRAME XSTACK, 18, STACK
        ARGFRAME IOVERLAY, 0, STATIC
        ARGFRAME DOVERLAY, 0, STATIC
        EXTERN zb_SendDataRequest
        FUNCTION zb_SendDataRequest,0202H
        ARGFRAME ISTACK, 0, STACK
        ARGFRAME PSTACK, 0, STACK
        ARGFRAME XSTACK, 23, STACK
        ARGFRAME IOVERLAY, 0, STATIC
        ARGFRAME DOVERLAY, 0, STATIC
        EXTERN osal_start_timerEx
        FUNCTION osal_start_timerEx,0202H
        ARGFRAME ISTACK, 2, STACK
        ARGFRAME PSTACK, 0, STACK
        ARGFRAME XSTACK, 18, STACK
        ARGFRAME IOVERLAY, 0, STATIC
        ARGFRAME DOVERLAY, 0, STATIC
        EXTERN zb_BindDevice
        FUNCTION zb_BindDevice,0202H
        ARGFRAME ISTACK, 2, STACK
        ARGFRAME PSTACK, 0, STACK
        ARGFRAME XSTACK, 18, STACK
        ARGFRAME IOVERLAY, 0, STATIC
        ARGFRAME DOVERLAY, 0, STATIC
        EXTERN zb_WriteConfiguration
        FUNCTION zb_WriteConfiguration,0202H
        ARGFRAME ISTACK, 0, STACK
        ARGFRAME PSTACK, 0, STACK
        ARGFRAME XSTACK, 11, STACK
        ARGFRAME IOVERLAY, 0, STATIC
        ARGFRAME DOVERLAY, 0, STATIC
        EXTERN zb_ReadConfiguration
        FUNCTION zb_ReadConfiguration,0202H
        ARGFRAME ISTACK, 0, STACK
        ARGFRAME PSTACK, 0, STACK
        ARGFRAME XSTACK, 11, STACK
        ARGFRAME IOVERLAY, 0, STATIC
        ARGFRAME DOVERLAY, 0, STATIC
        EXTERN zb_SystemReset
        FUNCTION zb_SystemReset,0202H
        ARGFRAME ISTACK, 0, STACK
        ARGFRAME PSTACK, 0, STACK
        ARGFRAME XSTACK, 11, STACK
        ARGFRAME IOVERLAY, 0, STATIC
        ARGFRAME DOVERLAY, 0, STATIC
        EXTERN osal_stop_timerEx
        FUNCTION osal_stop_timerEx,0202H
        ARGFRAME ISTACK, 2, STACK
        ARGFRAME PSTACK, 0, STACK
        ARGFRAME XSTACK, 0, STACK
        ARGFRAME IOVERLAY, 0, STATIC
        ARGFRAME DOVERLAY, 0, STATIC
        EXTERN HalLedSet
        FUNCTION HalLedSet,0202H
        ARGFRAME ISTACK, 2, STACK
        ARGFRAME PSTACK, 0, STACK
        ARGFRAME XSTACK, 0, STACK
        ARGFRAME IOVERLAY, 0, STATIC
        ARGFRAME DOVERLAY, 0, STATIC
        EXTERN ??HalLedSet?relay
        FUNCTION ??HalLedSet?relay,00H
        EXTERN ??osal_start_timerEx?relay
        FUNCTION ??osal_start_timerEx?relay,00H
        EXTERN ??osal_stop_timerEx?relay
        FUNCTION ??osal_stop_timerEx?relay,00H
        EXTERN ??zb_BindDevice?relay
        FUNCTION ??zb_BindDevice?relay,00H
        EXTERN ??zb_ReadConfiguration?relay
        FUNCTION ??zb_ReadConfiguration?relay,00H
        EXTERN ??zb_SendDataRequest?relay
        FUNCTION ??zb_SendDataRequest?relay,00H
        EXTERN ??zb_StartRequest?relay
        FUNCTION ??zb_StartRequest?relay,00H
        EXTERN ??zb_SystemReset?relay
        FUNCTION ??zb_SystemReset?relay,00H
        EXTERN ??zb_WriteConfiguration?relay
        FUNCTION ??zb_WriteConfiguration?relay,00H
        EXTERN sapi_TaskID

// F:\ZIGBEE2007PRO\ZigBee2007_PRO程序\ZigBee2007_PRO程序\Texas Instruments\ZStack-CC2530-2.2.0-1.3.0\Projects\zstack\Samples\SimpleApp\Source\SimpleSensor.c
//    1 
//    2 /**************************************************************************************************
//    3   Filename:       SimpleSensor.c
//    4   Revised:        $Date: 2009-03-18 15:56:27 -0700 (Wed, 18 Mar 2009) $
//    5   Revision:       $Revision: 19453 $
//    6 
//    7   Description:    Sample application for a simple sensor utilizing the Simple API.
//    8 
//    9 
//   10   Copyright 2007 Texas Instruments Incorporated. All rights reserved.
//   11 
//   12   IMPORTANT: Your use of this Software is limited to those specific rights
//   13   granted under the terms of a software license agreement between the user
//   14   who downloaded the software, his/her employer (which must be your employer)
//   15   and Texas Instruments Incorporated (the "License").  You may not use this
//   16   Software unless you agree to abide by the terms of the License. The License
//   17   limits your use, and you acknowledge, that the Software may not be modified,
//   18   copied or distributed unless embedded on a Texas Instruments microcontroller
//   19   or used solely and exclusively in conjunction with a Texas Instruments radio
//   20   frequency transceiver, which is integrated into your product.  Other than for
//   21   the foregoing purpose, you may not use, reproduce, copy, prepare derivative
//   22   works of, modify, distribute, perform, display or sell this Software and/or
//   23   its documentation for any purpose.
//   24 
//   25   YOU FURTHER ACKNOWLEDGE AND AGREE THAT THE SOFTWARE AND DOCUMENTATION ARE
//   26   PROVIDED AS IS?WITHOUT WARRANTY OF ANY KIND, EITHER EXPRESS OR IMPLIED,
//   27   INCLUDING WITHOUT LIMITATION, ANY WARRANTY OF MERCHANTABILITY, TITLE,
//   28   NON-INFRINGEMENT AND FITNESS FOR A PARTICULAR PURPOSE. IN NO EVENT SHALL
//   29   TEXAS INSTRUMENTS OR ITS LICENSORS BE LIABLE OR OBLIGATED UNDER CONTRACT,
//   30   NEGLIGENCE, STRICT LIABILITY, CONTRIBUTION, BREACH OF WARRANTY, OR OTHER
//   31   LEGAL EQUITABLE THEORY ANY DIRECT OR INDIRECT DAMAGES OR EXPENSES
//   32   INCLUDING BUT NOT LIMITED TO ANY INCIDENTAL, SPECIAL, INDIRECT, PUNITIVE
//   33   OR CONSEQUENTIAL DAMAGES, LOST PROFITS OR LOST DATA, COST OF PROCUREMENT
//   34   OF SUBSTITUTE GOODS, TECHNOLOGY, SERVICES, OR ANY CLAIMS BY THIRD PARTIES
//   35   (INCLUDING BUT NOT LIMITED TO ANY DEFENSE THEREOF), OR OTHER SIMILAR COSTS.
//   36 
//   37   Should you have any questions regarding your right to use this Software,
//   38   contact Texas Instruments Incorporated at www.TI.com.
//   39 **************************************************************************************************/
//   40 
//   41 /******************************************************************************
//   42  * INCLUDES
//   43  */
//   44 
//   45 #include "ZComDef.h"
//   46 #include "OSAL.h"
//   47 #include "sapi.h"
//   48 #include "hal_key.h"

        ASEGN SFR_AN:DATA:NOROOT,088H
// union <unnamed> volatile __sfr _A_TCON
_A_TCON:
        DS 1

        ASEGN SFR_AN:DATA:NOROOT,0b6H
// unsigned char volatile __sfr ADCCON3
ADCCON3:
        DS 1

        ASEGN SFR_AN:DATA:NOROOT,0baH
// unsigned char volatile __sfr ADCL
ADCL:
        DS 1

        ASEGN SFR_AN:DATA:NOROOT,0bbH
// unsigned char volatile __sfr ADCH
ADCH:
        DS 1
//   49 #include "hal_led.h"
//   50 #include "hal_adc.h"
//   51 #include "hal_mcu.h"
//   52 #include "SimpleApp.h"
//   53 
//   54 /*********************************************************************
//   55  * CONSTANTS
//   56  */
//   57 
//   58 // Application States
//   59 #define APP_INIT                           0    // Initial state
//   60 #define APP_START                          1    // Sensor has joined network
//   61 #define APP_BOUND                          2    // Sensor is bound to collector
//   62 
//   63 // Application osal event identifiers
//   64 // Bit mask of events ( from 0x0000 to 0x00FF )
//   65 #define MY_START_EVT                0x0001
//   66 #define MY_REPORT_TEMP_EVT          0x0002
//   67 #define MY_REPORT_BATT_EVT          0x0004
//   68 #define MY_FIND_COLLECTOR_EVT       0x0008
//   69 
//   70 // ADC definitions for CC2430/CC2530 from the hal_adc.c file
//   71 #if defined (HAL_MCU_CC2430) || defined (HAL_MCU_CC2530)
//   72 #define HAL_ADC_REF_125V    0x00    /* Internal 1.25V Reference */
//   73 #define HAL_ADC_DEC_064     0x00    /* Decimate by 64 : 8-bit resolution */
//   74 #define HAL_ADC_DEC_128     0x10    /* Decimate by 128 : 10-bit resolution */
//   75 #define HAL_ADC_DEC_512     0x30    /* Decimate by 512 : 14-bit resolution */
//   76 #define HAL_ADC_CHN_VDD3    0x0f    /* Input channel: VDD/3 */
//   77 #define HAL_ADC_CHN_TEMP    0x0e    /* Temperature sensor */
//   78 #endif //HAL_MCU_CC2430 || HAL_MCU_CC2530
//   79 
//   80 /*********************************************************************
//   81  * TYPEDEFS
//   82  */
//   83 
//   84 /*********************************************************************
//   85  * LOCAL VARIABLES
//   86  */
//   87 

        RSEG XDATA_Z:XDATA:NOROOT(0)
//   88 static uint8 myAppState = APP_INIT;
myAppState:
        DS 1
        REQUIRE __INIT_XDATA_Z
//   89 

        RSEG XDATA_I:XDATA:NOROOT(0)
        DATA
//   90 static uint16 myStartRetryDelay = 10000;      // milliseconds
myStartRetryDelay:
        DS 2
        REQUIRE `?<Initializer for myStartRetryDelay>`
        REQUIRE __INIT_XDATA_I

        RSEG XDATA_I:XDATA:NOROOT(0)
        DATA
//   91 static uint16 myTempReportPeriod = 5;     // milliseconds
myTempReportPeriod:
        DS 2
        REQUIRE `?<Initializer for myTempReportPeriod>`
        REQUIRE __INIT_XDATA_I

        RSEG XDATA_I:XDATA:NOROOT(0)
        DATA
//   92 static uint16 myBatteryCheckPeriod = 21000;   // milliseconds
myBatteryCheckPeriod:
        DS 2
        REQUIRE `?<Initializer for myBatteryCheckPeriod>`
        REQUIRE __INIT_XDATA_I

        RSEG XDATA_I:XDATA:NOROOT(0)
        DATA
//   93 static uint16 myBindRetryDelay = 10000;       // milliseconds
myBindRetryDelay:
        DS 2
        REQUIRE `?<Initializer for myBindRetryDelay>`
        REQUIRE __INIT_XDATA_I
//   94 /*********************************************************************
//   95  * GLOBAL VARIABLES
//   96  */
//   97 
//   98 // Inputs and Outputs for Sensor device
//   99 #define NUM_OUT_CMD_SENSOR                1
//  100 #define NUM_IN_CMD_SENSOR                 0
//  101 
//  102 // List of output and input commands for Sensor device

        RSEG XDATA_ROM_C:CONST:REORDER:NOROOT(0)
        DATA
//  103 const cId_t zb_OutCmdList[NUM_OUT_CMD_SENSOR] =
zb_OutCmdList:
        DW 2
//  104 {
//  105   SENSOR_REPORT_CMD_ID
//  106 };
//  107 
//  108 
//  109 #define TEMP_REPORT     0x01
//  110 #define BATTERY_REPORT 0x02
//  111 
//  112 
//  113 // Define SimpleDescriptor for Sensor device

        RSEG XDATA_ROM_C:CONST:REORDER:NOROOT(0)
        DATA
//  114 const SimpleDescriptionFormat_t zb_SimpleDesc =
zb_SimpleDesc:
        DB 2
        DW 3856, 3
        DB 1, 0
        DW 0H
        DB 1
        DW zb_OutCmdList
//  115 {
//  116   MY_ENDPOINT_ID,             //  Endpoint
//  117   MY_PROFILE_ID,              //  Profile ID
//  118   DEV_ID_SENSOR,              //  Device ID
//  119   DEVICE_VERSION_SENSOR,      //  Device Version
//  120   0,                          //  Reserved
//  121   NUM_IN_CMD_SENSOR,          //  Number of Input Commands
//  122   (cId_t *) NULL,             //  Input Command List
//  123   NUM_OUT_CMD_SENSOR,         //  Number of Output Commands
//  124   (cId_t *) zb_OutCmdList     //  Output Command List
//  125 };
//  126 
//  127 
//  128 /*********************************************************************
//  129  * LOCAL FUNCTIONS
//  130  */
//  131 static void myApp_StartReporting( void );
//  132 static void myApp_StopReporting( void );
//  133 
//  134 static uint8 myApp_ReadTemperature( void );
//  135 static uint8 myApp_ReadBattery( void );
//  136 
//  137 /*****************************************************************************
//  138  * @fn          zb_HandleOsalEvent
//  139  *
//  140  * @brief       The zb_HandleOsalEvent function is called by the operating
//  141  *              system when a task event is set
//  142  *
//  143  * @param       event - Bitmask containing the events that have been set
//  144  *
//  145  * @return      none
//  146  */

        RSEG BANKED_CODE:CODE:NOROOT(0)
//  147 void zb_HandleOsalEvent( uint16 event )
zb_HandleOsalEvent:
        CFI Block cfiBlock0 Using cfiCommon0
        CFI Function zb_HandleOsalEvent
//  148 {
        FUNCALL zb_HandleOsalEvent, zb_StartRequest
        LOCFRAME ISTACK, 0, STACK
        LOCFRAME PSTACK, 0, STACK
        LOCFRAME XSTACK, 18, STACK
        LOCFRAME IOVERLAY, 0, STATIC
        LOCFRAME DOVERLAY, 0, STATIC
        ARGFRAME ISTACK, 0, STACK
        ARGFRAME PSTACK, 0, STACK
        ARGFRAME XSTACK, 18, STACK
        ARGFRAME IOVERLAY, 0, STATIC
        ARGFRAME DOVERLAY, 0, STATIC
        FUNCALL zb_HandleOsalEvent, zb_SendDataRequest
        LOCFRAME ISTACK, 0, STACK
        LOCFRAME PSTACK, 0, STACK
        LOCFRAME XSTACK, 23, STACK
        LOCFRAME IOVERLAY, 0, STATIC
        LOCFRAME DOVERLAY, 0, STATIC
        ARGFRAME ISTACK, 0, STACK
        ARGFRAME PSTACK, 0, STACK
        ARGFRAME XSTACK, 23, STACK
        ARGFRAME IOVERLAY, 0, STATIC
        ARGFRAME DOVERLAY, 0, STATIC
        FUNCALL zb_HandleOsalEvent, osal_start_timerEx
        LOCFRAME ISTACK, 0, STACK
        LOCFRAME PSTACK, 0, STACK
        LOCFRAME XSTACK, 18, STACK
        LOCFRAME IOVERLAY, 0, STATIC
        LOCFRAME DOVERLAY, 0, STATIC
        ARGFRAME ISTACK, 0, STACK
        ARGFRAME PSTACK, 0, STACK
        ARGFRAME XSTACK, 18, STACK
        ARGFRAME IOVERLAY, 0, STATIC
        ARGFRAME DOVERLAY, 0, STATIC
        FUNCALL zb_HandleOsalEvent, zb_SendDataRequest
        LOCFRAME ISTACK, 0, STACK
        LOCFRAME PSTACK, 0, STACK
        LOCFRAME XSTACK, 23, STACK
        LOCFRAME IOVERLAY, 0, STATIC
        LOCFRAME DOVERLAY, 0, STATIC
        ARGFRAME ISTACK, 0, STACK
        ARGFRAME PSTACK, 0, STACK
        ARGFRAME XSTACK, 23, STACK
        ARGFRAME IOVERLAY, 0, STATIC
        ARGFRAME DOVERLAY, 0, STATIC
        FUNCALL zb_HandleOsalEvent, osal_start_timerEx
        LOCFRAME ISTACK, 0, STACK
        LOCFRAME PSTACK, 0, STACK
        LOCFRAME XSTACK, 18, STACK
        LOCFRAME IOVERLAY, 0, STATIC
        LOCFRAME DOVERLAY, 0, STATIC
        ARGFRAME ISTACK, 0, STACK
        ARGFRAME PSTACK, 0, STACK
        ARGFRAME XSTACK, 18, STACK
        ARGFRAME IOVERLAY, 0, STATIC
        ARGFRAME DOVERLAY, 0, STATIC
        FUNCALL zb_HandleOsalEvent, zb_BindDevice
        LOCFRAME ISTACK, 0, STACK
        LOCFRAME PSTACK, 0, STACK
        LOCFRAME XSTACK, 18, STACK
        LOCFRAME IOVERLAY, 0, STATIC
        LOCFRAME DOVERLAY, 0, STATIC
        ARGFRAME ISTACK, 0, STACK
        ARGFRAME PSTACK, 0, STACK
        ARGFRAME XSTACK, 18, STACK
        ARGFRAME IOVERLAY, 0, STATIC
        ARGFRAME DOVERLAY, 0, STATIC
        MOV     A,#-0x10
        LCALL   ?BANKED_ENTER_XDATA
        CFI DPH0 load(1, XDATA, add(CFA_XSP16, literal(-1)))
        CFI DPL0 load(1, XDATA, add(CFA_XSP16, literal(-2)))
        CFI ?BRET_EXT load(1, XDATA, add(CFA_XSP16, literal(-3)))
        CFI ?RET_HIGH load(1, XDATA, add(CFA_XSP16, literal(-4)))
        CFI ?RET_LOW load(1, XDATA, add(CFA_XSP16, literal(-5)))
        CFI R7 load(1, XDATA, add(CFA_XSP16, literal(-6)))
        CFI V7 load(1, XDATA, add(CFA_XSP16, literal(-7)))
        CFI V6 load(1, XDATA, add(CFA_XSP16, literal(-8)))
        CFI V5 load(1, XDATA, add(CFA_XSP16, literal(-9)))
        CFI V4 load(1, XDATA, add(CFA_XSP16, literal(-10)))
        CFI V3 load(1, XDATA, add(CFA_XSP16, literal(-11)))
        CFI V2 load(1, XDATA, add(CFA_XSP16, literal(-12)))
        CFI V1 load(1, XDATA, add(CFA_XSP16, literal(-13)))
        CFI V0 load(1, XDATA, add(CFA_XSP16, literal(-14)))
        CFI VB load(1, XDATA, add(CFA_XSP16, literal(-15)))
        CFI R6 load(1, XDATA, add(CFA_XSP16, literal(-16)))
        CFI CFA_SP SP+0
        CFI CFA_XSP16 add(XSP16, 16)
        ; Saved register size: 16
        ; Auto size: 2
        MOV     A,#-0x2
        LCALL   ?ALLOC_XSTACK8
        CFI CFA_XSP16 add(XSP16, 18)
        MOV     A,R2
        MOV     R6,A
//  149   uint8 pData[2];
//  150    
//  151 
//  152   if ( event & MY_START_EVT )
        MOV     C,0xE0 /* A   */.0
        JNC     ??zb_HandleOsalEvent_0
//  153   {
//  154     zb_StartRequest();
        ; Setup parameters for call to function zb_StartRequest
        LCALL   ??zb_StartRequest?relay
//  155   }
//  156   if ( event & MY_REPORT_TEMP_EVT )
??zb_HandleOsalEvent_0:
        MOV     A,R6
        ANL     A,#0x2
        JNZ     $+5
        LJMP    ??CrossCallReturnLabel_2 & 0xFFFF
//  157   {
//  158     // Read and report temperature value
//  159     pData[0] = TEMP_REPORT;
        MOV     A,#0x1
        MOV     DPL,?XSP + 0
        MOV     DPH,?XSP + 1
        MOVX    @DPTR,A
//  160     pData[1] =  myApp_ReadTemperature();
        CLR     0x88.5
        MOV     0xb6,#0x3e
??zb_HandleOsalEvent_1:
        MOV     C,0x88.5
        JNC     ??zb_HandleOsalEvent_1
        MOV     R2,0xba
        MOV     DPL,R2
        MOV     R0,DPL
        MOV     A,0xbb
        MOV     R1,A
        CLR     C
        MOV     A,R0
        SUBB    A,#0x26
        MOV     A,R1
        SUBB    A,#0x14
        JNC     ??zb_HandleOsalEvent_2
        MOV     R0,#0x26
        MOV     R1,#0x14
??zb_HandleOsalEvent_2:
        MOV     A,R0
        ADD     A,#-0x26
        MOV     R0,A
        MOV     A,R1
        ADDC    A,#-0x15
        MOV     R1,A
        CLR     C
        MOV     A,R0
        SUBB    A,#0x6b
        MOV     A,R1
        SUBB    A,#0x5
        JC      ??zb_HandleOsalEvent_3
        MOV     R0,#0x6a
        MOV     R1,#0x5
??zb_HandleOsalEvent_3:
        MOV     R2,#0xe
        MOV     R3,#0x0
        LCALL   ?US_DIV_MOD
        MOV     A,#0x1
        LCALL   ?XSTACK_DISP0_8
        MOV     A,R0
        MOVX    @DPTR,A
//  161     zb_SendDataRequest( 0xFFFE, SENSOR_REPORT_CMD_ID, 2, pData, 0, AF_ACK_REQUEST, 0 );
        ; Setup parameters for call to function zb_SendDataRequest
        MOV     ?V0 + 0,#0x0
        MOV     R0,#?V0 + 0
        LCALL   ?PUSH_XSTACK_I_ONE
        CFI CFA_XSP16 add(XSP16, 19)
        MOV     ?V0 + 0,#0x10
        MOV     R0,#?V0 + 0
        LCALL   ?PUSH_XSTACK_I_ONE
        CFI CFA_XSP16 add(XSP16, 20)
        MOV     ?V0 + 0,#0x0
        MOV     R0,#?V0 + 0
        LCALL   ?PUSH_XSTACK_I_ONE
        CFI CFA_XSP16 add(XSP16, 21)
        MOV     A,#0x3
        LCALL   ?XSTACK_DISP0_8
        MOV     ?V0 + 0,DPL
        MOV     ?V0 + 1,DPH
        MOV     R0,#?V0 + 0
        LCALL   ?PUSH_XSTACK_I_TWO
        CFI CFA_XSP16 add(XSP16, 23)
        MOV     R1,#0x2
        MOV     R4,#0x2
        MOV     R5,#0x0
        MOV     R2,#-0x2
        MOV     R3,#-0x1
        LCALL   ??zb_SendDataRequest?relay
        MOV     A,#0x5
        LCALL   ?DEALLOC_XSTACK8
        CFI CFA_XSP16 add(XSP16, 18)
//  162     osal_start_timerEx( sapi_TaskID, MY_REPORT_TEMP_EVT, myTempReportPeriod );
        ; Setup parameters for call to function osal_start_timerEx
        LCALL   ?Subroutine1 & 0xFFFF
//  163   }
//  164 
//  165   if ( event & MY_REPORT_BATT_EVT )
??CrossCallReturnLabel_2:
        MOV     A,R6
        ANL     A,#0x4
        JNZ     $+5
        LJMP    ??CrossCallReturnLabel_4 & 0xFFFF
//  166   {
//  167     // Read battery value
//  168     // If battery level low, report battery value
//  169     pData[0] = BATTERY_REPORT;
        MOV     A,#0x2
        MOV     DPL,?XSP + 0
        MOV     DPH,?XSP + 1
        MOVX    @DPTR,A
//  170     pData[1] =  myApp_ReadBattery();
        CLR     0x88.5
        MOV     0xb6,#0x1f
??zb_HandleOsalEvent_4:
        MOV     C,0x88.5
        JNC     ??zb_HandleOsalEvent_4
        MOV     R2,0xba
        MOV     DPL,R2
        MOV     ?V0 + 4,DPL
        MOV     A,0xbb
        MOV     ?V0 + 5,A
        MOV     A,#0x6
        MOV     R0,#?V0 + 4
        LCALL   ?US_SHR
        MOV     ?V0 + 6,A
        MOV     ?V0 + 7,A
        MOV     R0,#?V0 + 4
        LCALL   ?UL_TO_FLT
        MOV     DPTR,#__Constant_42160000
        MOV     R0,#?V0 + 0
        LCALL   ?L_MOV_X
        MOV     R0,#?V0 + 4
        MOV     R1,#?V0 + 0
        LCALL   ?FLT_MUL
        MOV     R0,#?V0 + 4
        LCALL   ?FLT_TO_L
        MOV     A,#0x9
        MOV     R0,#?V0 + 4
        LCALL   ?US_SHR
        MOV     A,#0x1
        LCALL   ?XSTACK_DISP0_8
        MOV     A,?V0 + 4
        MOVX    @DPTR,A
//  171     zb_SendDataRequest( 0xFFFE, SENSOR_REPORT_CMD_ID, 2, pData, 0, AF_ACK_REQUEST, 0 );
        ; Setup parameters for call to function zb_SendDataRequest
        MOV     ?V0 + 0,#0x0
        MOV     R0,#?V0 + 0
        LCALL   ?PUSH_XSTACK_I_ONE
        CFI CFA_XSP16 add(XSP16, 19)
        MOV     ?V0 + 0,#0x10
        MOV     R0,#?V0 + 0
        LCALL   ?PUSH_XSTACK_I_ONE
        CFI CFA_XSP16 add(XSP16, 20)
        MOV     ?V0 + 0,#0x0
        MOV     R0,#?V0 + 0
        LCALL   ?PUSH_XSTACK_I_ONE
        CFI CFA_XSP16 add(XSP16, 21)
        MOV     A,#0x3
        LCALL   ?XSTACK_DISP0_8
        MOV     ?V0 + 0,DPL
        MOV     ?V0 + 1,DPH
        MOV     R0,#?V0 + 0
        LCALL   ?PUSH_XSTACK_I_TWO
        CFI CFA_XSP16 add(XSP16, 23)
        MOV     R1,#0x2
        MOV     R4,#0x2
        MOV     R5,#0x0
        MOV     R2,#-0x2
        MOV     R3,#-0x1
        LCALL   ??zb_SendDataRequest?relay
        MOV     A,#0x5
        LCALL   ?DEALLOC_XSTACK8
        CFI CFA_XSP16 add(XSP16, 18)
//  172     osal_start_timerEx( sapi_TaskID, MY_REPORT_BATT_EVT, myBatteryCheckPeriod );
        ; Setup parameters for call to function osal_start_timerEx
        LCALL   ?Subroutine2 & 0xFFFF
//  173   }
//  174 
//  175   if ( event & MY_FIND_COLLECTOR_EVT )
??CrossCallReturnLabel_4:
        MOV     A,R6
        ANL     A,#0x8
        JZ      ??zb_HandleOsalEvent_5
//  176   {
//  177     // Find and bind to a collector device
//  178     zb_BindDevice( TRUE, SENSOR_REPORT_CMD_ID, (uint8 *)NULL );
        ; Setup parameters for call to function zb_BindDevice
        MOV     R4,#0x0
        MOV     R5,#0x0
        MOV     R2,#0x2
        MOV     R3,#0x0
        MOV     R1,#0x1
        LCALL   ??zb_BindDevice?relay
//  179   }
//  180 
//  181 }
??zb_HandleOsalEvent_5:
        MOV     A,#0x2
        LCALL   ?DEALLOC_XSTACK8
        CFI CFA_XSP16 add(XSP16, 16)
        MOV     R7,#0x8
        LJMP    ?BANKED_LEAVE_XDATA
        CFI EndBlock cfiBlock0
        REQUIRE _A_TCON
        REQUIRE ADCCON3
        REQUIRE ADCL
        REQUIRE ADCH
//  182 /*********************************************************************
//  183  * @fn      zb_HandleKeys
//  184  *
//  185  * @brief   Handles all key events for this device.
//  186  *
//  187  * @param   shift - true if in shift/alt.
//  188  * @param   keys - bit field for key events. Valid entries:
//  189  *                 EVAL_SW4
//  190  *                 EVAL_SW3
//  191  *                 EVAL_SW2
//  192  *                 EVAL_SW1
//  193  *
//  194  * @return  none
//  195  */

        RSEG BANKED_CODE:CODE:NOROOT(0)
//  196 void zb_HandleKeys( uint8 shift, uint8 keys )
zb_HandleKeys:
        CFI Block cfiBlock1 Using cfiCommon0
        CFI Function zb_HandleKeys
//  197 {
        FUNCALL zb_HandleKeys, zb_WriteConfiguration
        LOCFRAME ISTACK, 0, STACK
        LOCFRAME PSTACK, 0, STACK
        LOCFRAME XSTACK, 11, STACK
        LOCFRAME IOVERLAY, 0, STATIC
        LOCFRAME DOVERLAY, 0, STATIC
        ARGFRAME ISTACK, 0, STACK
        ARGFRAME PSTACK, 0, STACK
        ARGFRAME XSTACK, 11, STACK
        ARGFRAME IOVERLAY, 0, STATIC
        ARGFRAME DOVERLAY, 0, STATIC
        FUNCALL zb_HandleKeys, zb_ReadConfiguration
        LOCFRAME ISTACK, 0, STACK
        LOCFRAME PSTACK, 0, STACK
        LOCFRAME XSTACK, 11, STACK
        LOCFRAME IOVERLAY, 0, STATIC
        LOCFRAME DOVERLAY, 0, STATIC
        ARGFRAME ISTACK, 0, STACK
        ARGFRAME PSTACK, 0, STACK
        ARGFRAME XSTACK, 11, STACK
        ARGFRAME IOVERLAY, 0, STATIC
        ARGFRAME DOVERLAY, 0, STATIC
        FUNCALL zb_HandleKeys, zb_WriteConfiguration
        LOCFRAME ISTACK, 0, STACK
        LOCFRAME PSTACK, 0, STACK
        LOCFRAME XSTACK, 11, STACK
        LOCFRAME IOVERLAY, 0, STATIC
        LOCFRAME DOVERLAY, 0, STATIC
        ARGFRAME ISTACK, 0, STACK
        ARGFRAME PSTACK, 0, STACK
        ARGFRAME XSTACK, 11, STACK
        ARGFRAME IOVERLAY, 0, STATIC
        ARGFRAME DOVERLAY, 0, STATIC
        FUNCALL zb_HandleKeys, zb_SystemReset
        LOCFRAME ISTACK, 0, STACK
        LOCFRAME PSTACK, 0, STACK
        LOCFRAME XSTACK, 11, STACK
        LOCFRAME IOVERLAY, 0, STATIC
        LOCFRAME DOVERLAY, 0, STATIC
        ARGFRAME ISTACK, 0, STACK
        ARGFRAME PSTACK, 0, STACK
        ARGFRAME XSTACK, 11, STACK
        ARGFRAME IOVERLAY, 0, STATIC
        ARGFRAME DOVERLAY, 0, STATIC
        FUNCALL zb_HandleKeys, zb_WriteConfiguration
        LOCFRAME ISTACK, 0, STACK
        LOCFRAME PSTACK, 0, STACK
        LOCFRAME XSTACK, 11, STACK
        LOCFRAME IOVERLAY, 0, STATIC
        LOCFRAME DOVERLAY, 0, STATIC
        ARGFRAME ISTACK, 0, STACK
        ARGFRAME PSTACK, 0, STACK
        ARGFRAME XSTACK, 11, STACK
        ARGFRAME IOVERLAY, 0, STATIC
        ARGFRAME DOVERLAY, 0, STATIC
        FUNCALL zb_HandleKeys, zb_ReadConfiguration
        LOCFRAME ISTACK, 0, STACK
        LOCFRAME PSTACK, 0, STACK
        LOCFRAME XSTACK, 11, STACK
        LOCFRAME IOVERLAY, 0, STATIC
        LOCFRAME DOVERLAY, 0, STATIC
        ARGFRAME ISTACK, 0, STACK
        ARGFRAME PSTACK, 0, STACK
        ARGFRAME XSTACK, 11, STACK
        ARGFRAME IOVERLAY, 0, STATIC
        ARGFRAME DOVERLAY, 0, STATIC
        FUNCALL zb_HandleKeys, zb_WriteConfiguration
        LOCFRAME ISTACK, 0, STACK
        LOCFRAME PSTACK, 0, STACK
        LOCFRAME XSTACK, 11, STACK
        LOCFRAME IOVERLAY, 0, STATIC
        LOCFRAME DOVERLAY, 0, STATIC
        ARGFRAME ISTACK, 0, STACK
        ARGFRAME PSTACK, 0, STACK
        ARGFRAME XSTACK, 11, STACK
        ARGFRAME IOVERLAY, 0, STATIC
        ARGFRAME DOVERLAY, 0, STATIC
        FUNCALL zb_HandleKeys, zb_SystemReset
        LOCFRAME ISTACK, 0, STACK
        LOCFRAME PSTACK, 0, STACK
        LOCFRAME XSTACK, 11, STACK
        LOCFRAME IOVERLAY, 0, STATIC
        LOCFRAME DOVERLAY, 0, STATIC
        ARGFRAME ISTACK, 0, STACK
        ARGFRAME PSTACK, 0, STACK
        ARGFRAME XSTACK, 11, STACK
        ARGFRAME IOVERLAY, 0, STATIC
        ARGFRAME DOVERLAY, 0, STATIC
        MOV     A,#-0x9
        LCALL   ?BANKED_ENTER_XDATA
        CFI DPH0 load(1, XDATA, add(CFA_XSP16, literal(-1)))
        CFI DPL0 load(1, XDATA, add(CFA_XSP16, literal(-2)))
        CFI ?BRET_EXT load(1, XDATA, add(CFA_XSP16, literal(-3)))
        CFI ?RET_HIGH load(1, XDATA, add(CFA_XSP16, literal(-4)))
        CFI ?RET_LOW load(1, XDATA, add(CFA_XSP16, literal(-5)))
        CFI R7 load(1, XDATA, add(CFA_XSP16, literal(-6)))
        CFI V0 load(1, XDATA, add(CFA_XSP16, literal(-7)))
        CFI VB load(1, XDATA, add(CFA_XSP16, literal(-8)))
        CFI R6 load(1, XDATA, add(CFA_XSP16, literal(-9)))
        CFI CFA_SP SP+0
        CFI CFA_XSP16 add(XSP16, 9)
        ; Saved register size: 9
        ; Auto size: 2
        MOV     A,#-0x2
        LCALL   ?ALLOC_XSTACK8
        CFI CFA_XSP16 add(XSP16, 11)
        MOV     A,R2
        MOV     R6,A
//  198   uint8 startOptions;
//  199   uint8 logicalType;
//  200 
//  201   // Shift is used to make each button/switch dual purpose.
//  202   if ( shift )
        MOV     A,R1
        JNZ     ??CrossCallReturnLabel_1
//  203   {
//  204     if ( keys & HAL_KEY_SW_1 )
//  205     {
//  206     }
//  207     if ( keys & HAL_KEY_SW_2 )
//  208     {
//  209     }
//  210     if ( keys & HAL_KEY_SW_3 )
//  211     {
//  212     }
//  213     if ( keys & HAL_KEY_SW_4 )
//  214     {
//  215     }
//  216   }
//  217   else
//  218   {
//  219     if ( keys & HAL_KEY_SW_1 )
        MOV     A,R6
        MOV     C,0xE0 /* A   */.0
        JNC     ??CrossCallReturnLabel_0
//  220     {
//  221       if ( myAppState == APP_INIT )
        MOV     DPTR,#myAppState
        MOVX    A,@DPTR
        JNZ     ??CrossCallReturnLabel_0
//  222       {
//  223         // In the init state, keys are used to indicate the logical mode.
//  224         // The Sensor device is always an end-device
//  225         logicalType = ZG_DEVICETYPE_ENDDEVICE;
        MOV     A,#0x1
        LCALL   ?XSTACK_DISP0_8
        LCALL   ?Subroutine0 & 0xFFFF
//  226         zb_WriteConfiguration(ZCD_NV_LOGICAL_TYPE, sizeof(uint8), &logicalType);
//  227 
//  228         // Do more configuration if necessary and then restart device with auto-start bit set
//  229 
//  230         zb_ReadConfiguration( ZCD_NV_STARTUP_OPTION, sizeof(uint8), &startOptions );
//  231         startOptions = ZCD_STARTOPT_AUTO_START;
//  232         zb_WriteConfiguration( ZCD_NV_STARTUP_OPTION, sizeof(uint8), &startOptions );
//  233         zb_SystemReset();
//  234 
//  235       }
//  236     }
//  237     if ( keys & HAL_KEY_SW_2 )
??CrossCallReturnLabel_0:
        MOV     A,R6
        MOV     C,0xE0 /* A   */.1
        JNC     ??CrossCallReturnLabel_1
//  238     {
//  239       if ( myAppState == APP_INIT )
        MOV     DPTR,#myAppState
        MOVX    A,@DPTR
        JNZ     ??CrossCallReturnLabel_1
//  240       {
//  241         // In the init state, keys are used to indicate the logical mode.
//  242         // The Sensor device is always an end-device
//  243         logicalType = ZG_DEVICETYPE_ENDDEVICE;
        MOV     A,#0x1
        LCALL   ?XSTACK_DISP0_8
        LCALL   ?Subroutine0 & 0xFFFF
//  244         zb_WriteConfiguration(ZCD_NV_LOGICAL_TYPE, sizeof(uint8), &logicalType);
//  245 
//  246         // Do more configuration if necessary and then restart device with auto-start bit set
//  247 
//  248         zb_ReadConfiguration( ZCD_NV_STARTUP_OPTION, sizeof(uint8), &startOptions );
//  249         startOptions = ZCD_STARTOPT_AUTO_START;
//  250         zb_WriteConfiguration( ZCD_NV_STARTUP_OPTION, sizeof(uint8), &startOptions );
//  251         zb_SystemReset();
//  252       }
//  253     }
//  254     if ( keys & HAL_KEY_SW_3 )
//  255     {
//  256     }
//  257     if ( keys & HAL_KEY_SW_4 )
//  258     {
//  259     }
//  260   }
//  261 }
??CrossCallReturnLabel_1:
        MOV     A,#0x2
        LCALL   ?DEALLOC_XSTACK8
        CFI CFA_XSP16 add(XSP16, 9)
        MOV     R7,#0x1
        LJMP    ?BANKED_LEAVE_XDATA
        CFI EndBlock cfiBlock1

        RSEG BANKED_CODE:CODE:NOROOT(0)
?Subroutine0:
        CFI Block cfiCond2 Using cfiCommon0
        CFI NoFunction
        CFI Conditional ??CrossCallReturnLabel_0
        CFI R6 load(1, XDATA, add(CFA_XSP16, literal(-9)))
        CFI VB load(1, XDATA, add(CFA_XSP16, literal(-8)))
        CFI V0 load(1, XDATA, add(CFA_XSP16, literal(-7)))
        CFI R7 load(1, XDATA, add(CFA_XSP16, literal(-6)))
        CFI ?RET_LOW load(1, XDATA, add(CFA_XSP16, literal(-5)))
        CFI ?RET_HIGH load(1, XDATA, add(CFA_XSP16, literal(-4)))
        CFI ?BRET_EXT load(1, XDATA, add(CFA_XSP16, literal(-3)))
        CFI DPL0 load(1, XDATA, add(CFA_XSP16, literal(-2)))
        CFI DPH0 load(1, XDATA, add(CFA_XSP16, literal(-1)))
        CFI CFA_SP SP+0
        CFI CFA_XSP16 add(XSP16, 11)
        CFI Block cfiCond3 Using cfiCommon0
        CFI (cfiCond3) NoFunction
        CFI (cfiCond3) Conditional ??CrossCallReturnLabel_1
        CFI (cfiCond3) R6 load(1, XDATA, add(CFA_XSP16, literal(-9)))
        CFI (cfiCond3) VB load(1, XDATA, add(CFA_XSP16, literal(-8)))
        CFI (cfiCond3) V0 load(1, XDATA, add(CFA_XSP16, literal(-7)))
        CFI (cfiCond3) R7 load(1, XDATA, add(CFA_XSP16, literal(-6)))
        CFI (cfiCond3) ?RET_LOW load(1, XDATA, add(CFA_XSP16, literal(-5)))
        CFI (cfiCond3) ?RET_HIGH load(1, XDATA, add(CFA_XSP16, literal(-4)))
        CFI (cfiCond3) ?BRET_EXT load(1, XDATA, add(CFA_XSP16, literal(-3)))
        CFI (cfiCond3) DPL0 load(1, XDATA, add(CFA_XSP16, literal(-2)))
        CFI (cfiCond3) DPH0 load(1, XDATA, add(CFA_XSP16, literal(-1)))
        CFI (cfiCond3) CFA_SP SP+0
        CFI (cfiCond3) CFA_XSP16 add(XSP16, 11)
        CFI Block cfiPicker4 Using cfiCommon1
        CFI (cfiPicker4) NoFunction
        CFI (cfiPicker4) Picker
        MOV     A,#0x2
        MOVX    @DPTR,A
        ; Setup parameters for call to function zb_WriteConfiguration
        ; Setup parameters for call to function zb_WriteConfiguration
        MOV     R4,DPL
        MOV     R5,DPH
        MOV     R2,#0x1
        MOV     R1,#-0x79
        LCALL   ??zb_WriteConfiguration?relay
        ; Setup parameters for call to function zb_ReadConfiguration
        ; Setup parameters for call to function zb_ReadConfiguration
        MOV     DPL,?XSP + 0
        MOV     DPH,?XSP + 1
        MOV     R4,DPL
        MOV     R5,DPH
        MOV     R2,#0x1
        MOV     R1,#0x3
        LCALL   ??zb_ReadConfiguration?relay
        MOV     A,#0x4
        MOV     DPL,?XSP + 0
        MOV     DPH,?XSP + 1
        MOVX    @DPTR,A
        ; Setup parameters for call to function zb_WriteConfiguration
        ; Setup parameters for call to function zb_WriteConfiguration
        MOV     R4,DPL
        MOV     R5,DPH
        MOV     R2,#0x1
        MOV     R1,#0x3
        LCALL   ??zb_WriteConfiguration?relay
        ; Setup parameters for call to function zb_SystemReset
        ; Setup parameters for call to function zb_SystemReset
        LCALL   ??zb_SystemReset?relay
        RET
        CFI EndBlock cfiCond2
        CFI EndBlock cfiCond3
        CFI EndBlock cfiPicker4
//  262 /******************************************************************************
//  263  * @fn          zb_StartConfirm
//  264  *
//  265  * @brief       The zb_StartConfirm callback is called by the ZigBee stack
//  266  *              after a start request operation completes
//  267  *
//  268  * @param       status - The status of the start operation.  Status of
//  269  *                       ZB_SUCCESS indicates the start operation completed
//  270  *                       successfully.  Else the status is an error code.
//  271  *
//  272  * @return      none
//  273  */

        RSEG BANKED_CODE:CODE:NOROOT(0)
//  274 void zb_StartConfirm( uint8 status )
zb_StartConfirm:
        CFI Block cfiBlock5 Using cfiCommon0
        CFI Function zb_StartConfirm
//  275 {
        FUNCALL zb_StartConfirm, osal_start_timerEx
        LOCFRAME ISTACK, 2, STACK
        LOCFRAME PSTACK, 0, STACK
        LOCFRAME XSTACK, 0, STACK
        LOCFRAME IOVERLAY, 0, STATIC
        LOCFRAME DOVERLAY, 0, STATIC
        ARGFRAME ISTACK, 2, STACK
        ARGFRAME PSTACK, 0, STACK
        ARGFRAME XSTACK, 0, STACK
        ARGFRAME IOVERLAY, 0, STATIC
        ARGFRAME DOVERLAY, 0, STATIC
        FUNCALL zb_StartConfirm, osal_start_timerEx
        LOCFRAME ISTACK, 2, STACK
        LOCFRAME PSTACK, 0, STACK
        LOCFRAME XSTACK, 0, STACK
        LOCFRAME IOVERLAY, 0, STATIC
        LOCFRAME DOVERLAY, 0, STATIC
        ARGFRAME ISTACK, 2, STACK
        ARGFRAME PSTACK, 0, STACK
        ARGFRAME XSTACK, 0, STACK
        ARGFRAME IOVERLAY, 0, STATIC
        ARGFRAME DOVERLAY, 0, STATIC
        PUSH    DPL
        CFI DPL0 Frame(CFA_SP, 4)
        CFI CFA_SP SP+-4
        PUSH    DPH
        CFI DPH0 Frame(CFA_SP, 5)
        CFI CFA_SP SP+-5
        ; Saved register size: 2
        ; Auto size: 0
//  276   if ( status == ZB_SUCCESS )
        MOV     A,R1
        JNZ     ??zb_StartConfirm_0
//  277   {
//  278     myAppState = APP_START;
        MOV     A,#0x1
        MOV     DPTR,#myAppState
        MOVX    @DPTR,A
//  279 
//  280     // Set event to bind to a collector
//  281     osal_start_timerEx( sapi_TaskID, MY_FIND_COLLECTOR_EVT, myBindRetryDelay );
        ; Setup parameters for call to function osal_start_timerEx
        LCALL   ?Subroutine4 & 0xFFFF
//  282   }
??CrossCallReturnLabel_15:
        MOV     R2,#0x8
        SJMP    ??zb_StartConfirm_1
//  283   else
//  284   {
//  285     // Try joining again later with a delay
//  286     osal_start_timerEx( sapi_TaskID, MY_START_EVT, myStartRetryDelay );
??zb_StartConfirm_0:
        ; Setup parameters for call to function osal_start_timerEx
        MOV     DPTR,#myStartRetryDelay
        LCALL   ??Subroutine8_0 & 0xFFFF
//  287   }
??CrossCallReturnLabel_12:
        MOV     R2,#0x1
??zb_StartConfirm_1:
        LCALL   ??Subroutine7_0 & 0xFFFF
        CFI EndBlock cfiBlock5
//  288 }
??CrossCallReturnLabel_8:
        REQUIRE ?Subroutine6
        ; // Fall through to label ?Subroutine6

        RSEG BANKED_CODE:CODE:NOROOT(0)
?Subroutine6:
        CFI Block cfiBlock6 Using cfiCommon0
        CFI NoFunction
        CFI CFA_SP SP+-5
        CFI DPL0 Frame(CFA_SP, 4)
        CFI DPH0 Frame(CFA_SP, 5)
        POP     DPH
        CFI CFA_SP SP+-4
        CFI DPH0 SameValue
        POP     DPL
        CFI CFA_SP SP+-3
        CFI DPL0 SameValue
        LJMP    ?BRET
        CFI EndBlock cfiBlock6
//  289 /******************************************************************************
//  290  * @fn          zb_SendDataConfirm
//  291  *
//  292  * @brief       The zb_SendDataConfirm callback function is called by the
//  293  *              ZigBee after a send data operation completes
//  294  *
//  295  * @param       handle - The handle identifying the data transmission.
//  296  *              status - The status of the operation.
//  297  *
//  298  * @return      none
//  299  */

        RSEG BANKED_CODE:CODE:NOROOT(0)
//  300 void zb_SendDataConfirm( uint8 handle, uint8 status )
zb_SendDataConfirm:
        CFI Block cfiBlock7 Using cfiCommon0
        CFI Function zb_SendDataConfirm
//  301 {
        FUNCALL zb_SendDataConfirm, zb_BindDevice
        LOCFRAME ISTACK, 2, STACK
        LOCFRAME PSTACK, 0, STACK
        LOCFRAME XSTACK, 0, STACK
        LOCFRAME IOVERLAY, 0, STATIC
        LOCFRAME DOVERLAY, 0, STATIC
        ARGFRAME ISTACK, 2, STACK
        ARGFRAME PSTACK, 0, STACK
        ARGFRAME XSTACK, 0, STACK
        ARGFRAME IOVERLAY, 0, STATIC
        ARGFRAME DOVERLAY, 0, STATIC
        FUNCALL zb_SendDataConfirm, osal_stop_timerEx
        LOCFRAME ISTACK, 2, STACK
        LOCFRAME PSTACK, 0, STACK
        LOCFRAME XSTACK, 0, STACK
        LOCFRAME IOVERLAY, 0, STATIC
        LOCFRAME DOVERLAY, 0, STATIC
        ARGFRAME ISTACK, 2, STACK
        ARGFRAME PSTACK, 0, STACK
        ARGFRAME XSTACK, 0, STACK
        ARGFRAME IOVERLAY, 0, STATIC
        ARGFRAME DOVERLAY, 0, STATIC
        FUNCALL zb_SendDataConfirm, osal_stop_timerEx
        LOCFRAME ISTACK, 2, STACK
        LOCFRAME PSTACK, 0, STACK
        LOCFRAME XSTACK, 0, STACK
        LOCFRAME IOVERLAY, 0, STATIC
        LOCFRAME DOVERLAY, 0, STATIC
        ARGFRAME ISTACK, 2, STACK
        ARGFRAME PSTACK, 0, STACK
        ARGFRAME XSTACK, 0, STACK
        ARGFRAME IOVERLAY, 0, STATIC
        ARGFRAME DOVERLAY, 0, STATIC
        FUNCALL zb_SendDataConfirm, HalLedSet
        LOCFRAME ISTACK, 2, STACK
        LOCFRAME PSTACK, 0, STACK
        LOCFRAME XSTACK, 0, STACK
        LOCFRAME IOVERLAY, 0, STATIC
        LOCFRAME DOVERLAY, 0, STATIC
        ARGFRAME ISTACK, 2, STACK
        ARGFRAME PSTACK, 0, STACK
        ARGFRAME XSTACK, 0, STACK
        ARGFRAME IOVERLAY, 0, STATIC
        ARGFRAME DOVERLAY, 0, STATIC
        FUNCALL zb_SendDataConfirm, osal_start_timerEx
        LOCFRAME ISTACK, 2, STACK
        LOCFRAME PSTACK, 0, STACK
        LOCFRAME XSTACK, 0, STACK
        LOCFRAME IOVERLAY, 0, STATIC
        LOCFRAME DOVERLAY, 0, STATIC
        ARGFRAME ISTACK, 2, STACK
        ARGFRAME PSTACK, 0, STACK
        ARGFRAME XSTACK, 0, STACK
        ARGFRAME IOVERLAY, 0, STATIC
        ARGFRAME DOVERLAY, 0, STATIC
        PUSH    DPL
        CFI DPL0 Frame(CFA_SP, 4)
        CFI CFA_SP SP+-4
        PUSH    DPH
        CFI DPH0 Frame(CFA_SP, 5)
        CFI CFA_SP SP+-5
        ; Saved register size: 2
        ; Auto size: 0
//  302   (void)handle; // Intentionally unreferenced parameter
//  303   
//  304   if ( status != ZSuccess )
        MOV     A,R2
        JZ      ??CrossCallReturnLabel_6
//  305   {
//  306     // Remove bindings to the existing collector
//  307     zb_BindDevice( FALSE, SENSOR_REPORT_CMD_ID, (uint8 *)NULL );
        ; Setup parameters for call to function zb_BindDevice
        MOV     R4,#0x0
        MOV     R5,#0x0
        MOV     R2,#0x2
        MOV     R3,#0x0
        MOV     R1,#0x0
        LCALL   ??zb_BindDevice?relay
//  308 
//  309     myAppState = APP_START;
        MOV     A,#0x1
        MOV     DPTR,#myAppState
        MOVX    @DPTR,A
//  310     myApp_StopReporting();
        ; Setup parameters for call to function osal_stop_timerEx
        MOV     R2,#0x2
        MOV     R3,#0x0
        MOV     DPTR,#sapi_TaskID
        MOVX    A,@DPTR
        MOV     R1,A
        LCALL   ??osal_stop_timerEx?relay
        ; Setup parameters for call to function osal_stop_timerEx
        MOV     R2,#0x4
        MOV     R3,#0x0
        MOV     DPTR,#sapi_TaskID
        MOVX    A,@DPTR
        MOV     R1,A
        LCALL   ??osal_stop_timerEx?relay
        ; Setup parameters for call to function HalLedSet
        MOV     R2,#0x0
        MOV     R1,#0x1
        LCALL   ??HalLedSet?relay
//  311 
//  312     // Start process of finding new collector with minimal delay
//  313     osal_start_timerEx( sapi_TaskID, MY_FIND_COLLECTOR_EVT, 1 );
        ; Setup parameters for call to function osal_start_timerEx
        MOV     R4,#0x1
        MOV     R5,#0x0
        LCALL   ?Subroutine3 & 0xFFFF
//  314   }
//  315   else
//  316   {
//  317     // send data ??
//  318   }
//  319 }
??CrossCallReturnLabel_6:
        SJMP    ?Subroutine6
        CFI EndBlock cfiBlock7

        RSEG BANKED_CODE:CODE:NOROOT(0)
?Subroutine3:
        CFI Block cfiCond8 Using cfiCommon0
        CFI NoFunction
        CFI Conditional ??CrossCallReturnLabel_6
        CFI DPL0 Frame(CFA_SP, 4)
        CFI DPH0 Frame(CFA_SP, 5)
        CFI CFA_SP SP+-5
        CFI Block cfiCond9 Using cfiCommon0
        CFI (cfiCond9) NoFunction
        CFI (cfiCond9) Conditional ??CrossCallReturnLabel_7
        CFI (cfiCond9) DPL0 Frame(CFA_SP, 4)
        CFI (cfiCond9) DPH0 Frame(CFA_SP, 5)
        CFI (cfiCond9) CFA_SP SP+-5
        CFI Block cfiPicker10 Using cfiCommon1
        CFI (cfiPicker10) NoFunction
        CFI (cfiPicker10) Picker
        MOV     R2,#0x8
        CFI EndBlock cfiCond8
        CFI EndBlock cfiCond9
        CFI EndBlock cfiPicker10
        REQUIRE ??Subroutine7_0
        ; // Fall through to label ??Subroutine7_0

        RSEG BANKED_CODE:CODE:NOROOT(0)
??Subroutine7_0:
        CFI Block cfiCond11 Using cfiCommon0
        CFI NoFunction
        CFI Conditional ??CrossCallReturnLabel_8
        CFI DPL0 Frame(CFA_SP, 4)
        CFI DPH0 Frame(CFA_SP, 5)
        CFI CFA_SP SP+-5
        CFI Block cfiCond12 Using cfiCommon0
        CFI (cfiCond12) NoFunction
        CFI (cfiCond12) Conditional ??CrossCallReturnLabel_6
        CFI (cfiCond12) DPL0 Frame(CFA_SP, 4)
        CFI (cfiCond12) DPH0 Frame(CFA_SP, 5)
        CFI (cfiCond12) CFA_SP SP+-5
        CFI Block cfiCond13 Using cfiCommon0
        CFI (cfiCond13) NoFunction
        CFI (cfiCond13) Conditional ??CrossCallReturnLabel_7
        CFI (cfiCond13) DPL0 Frame(CFA_SP, 4)
        CFI (cfiCond13) DPH0 Frame(CFA_SP, 5)
        CFI (cfiCond13) CFA_SP SP+-5
        CFI Block cfiPicker14 Using cfiCommon1
        CFI (cfiPicker14) NoFunction
        CFI (cfiPicker14) Picker
        LCALL   ?Subroutine5 & 0xFFFF
??CrossCallReturnLabel_9:
        RET
        CFI EndBlock cfiCond11
        CFI EndBlock cfiCond12
        CFI EndBlock cfiCond13
        CFI EndBlock cfiPicker14
//  320 /******************************************************************************
//  321  * @fn          zb_BindConfirm
//  322  *
//  323  * @brief       The zb_BindConfirm callback is called by the ZigBee stack
//  324  *              after a bind operation completes.
//  325  *
//  326  * @param       commandId - The command ID of the binding being confirmed.
//  327  *              status - The status of the bind operation.
//  328  *
//  329  * @return      none
//  330  */

        RSEG BANKED_CODE:CODE:NOROOT(0)
//  331 void zb_BindConfirm( uint16 commandId, uint8 status )
zb_BindConfirm:
        CFI Block cfiBlock15 Using cfiCommon0
        CFI Function zb_BindConfirm
//  332 {
        FUNCALL zb_BindConfirm, osal_start_timerEx
        LOCFRAME ISTACK, 2, STACK
        LOCFRAME PSTACK, 0, STACK
        LOCFRAME XSTACK, 0, STACK
        LOCFRAME IOVERLAY, 0, STATIC
        LOCFRAME DOVERLAY, 0, STATIC
        ARGFRAME ISTACK, 2, STACK
        ARGFRAME PSTACK, 0, STACK
        ARGFRAME XSTACK, 0, STACK
        ARGFRAME IOVERLAY, 0, STATIC
        ARGFRAME DOVERLAY, 0, STATIC
        FUNCALL zb_BindConfirm, osal_start_timerEx
        LOCFRAME ISTACK, 2, STACK
        LOCFRAME PSTACK, 0, STACK
        LOCFRAME XSTACK, 0, STACK
        LOCFRAME IOVERLAY, 0, STATIC
        LOCFRAME DOVERLAY, 0, STATIC
        ARGFRAME ISTACK, 2, STACK
        ARGFRAME PSTACK, 0, STACK
        ARGFRAME XSTACK, 0, STACK
        ARGFRAME IOVERLAY, 0, STATIC
        ARGFRAME DOVERLAY, 0, STATIC
        FUNCALL zb_BindConfirm, HalLedSet
        LOCFRAME ISTACK, 2, STACK
        LOCFRAME PSTACK, 0, STACK
        LOCFRAME XSTACK, 0, STACK
        LOCFRAME IOVERLAY, 0, STATIC
        LOCFRAME DOVERLAY, 0, STATIC
        ARGFRAME ISTACK, 2, STACK
        ARGFRAME PSTACK, 0, STACK
        ARGFRAME XSTACK, 0, STACK
        ARGFRAME IOVERLAY, 0, STATIC
        ARGFRAME DOVERLAY, 0, STATIC
        FUNCALL zb_BindConfirm, osal_start_timerEx
        LOCFRAME ISTACK, 2, STACK
        LOCFRAME PSTACK, 0, STACK
        LOCFRAME XSTACK, 0, STACK
        LOCFRAME IOVERLAY, 0, STATIC
        LOCFRAME DOVERLAY, 0, STATIC
        ARGFRAME ISTACK, 2, STACK
        ARGFRAME PSTACK, 0, STACK
        ARGFRAME XSTACK, 0, STACK
        ARGFRAME IOVERLAY, 0, STATIC
        ARGFRAME DOVERLAY, 0, STATIC
        PUSH    DPL
        CFI DPL0 Frame(CFA_SP, 4)
        CFI CFA_SP SP+-4
        PUSH    DPH
        CFI DPH0 Frame(CFA_SP, 5)
        CFI CFA_SP SP+-5
        ; Saved register size: 2
        ; Auto size: 0
//  333   (void)commandId;
//  334   
//  335   if ( ( status == ZB_SUCCESS ) && ( myAppState == APP_START ) )
        MOV     A,R1
        JNZ     ??zb_BindConfirm_0
        MOV     DPTR,#myAppState
        MOVX    A,@DPTR
        XRL     A,#0x1
        JNZ     ??zb_BindConfirm_0
//  336   {
//  337     myAppState = APP_BOUND;
        MOV     A,#0x2
        MOVX    @DPTR,A
//  338 
//  339     //Start reporting sensor values
//  340     myApp_StartReporting();
        ; Setup parameters for call to function osal_start_timerEx
        LCALL   ?Subroutine1 & 0xFFFF
??CrossCallReturnLabel_3:
        ; Setup parameters for call to function osal_start_timerEx
        LCALL   ?Subroutine2 & 0xFFFF
??CrossCallReturnLabel_5:
        ; Setup parameters for call to function HalLedSet
        MOV     R2,#0x1
        MOV     R1,#0x1
        LCALL   ??HalLedSet?relay
//  341   }
        SJMP    ??CrossCallReturnLabel_7
//  342   else
//  343   {
//  344     // Continue to discover a collector
//  345     osal_start_timerEx( sapi_TaskID, MY_FIND_COLLECTOR_EVT, myBindRetryDelay );
??zb_BindConfirm_0:
        ; Setup parameters for call to function osal_start_timerEx
        LCALL   ?Subroutine4 & 0xFFFF
//  346   }
??CrossCallReturnLabel_16:
        LCALL   ?Subroutine3 & 0xFFFF
//  347 }
??CrossCallReturnLabel_7:
        SJMP    ?Subroutine6
        CFI EndBlock cfiBlock15

        RSEG BANKED_CODE:CODE:NOROOT(0)
?Subroutine2:
        CFI Block cfiCond16 Using cfiCommon0
        CFI NoFunction
        CFI Conditional ??CrossCallReturnLabel_4
        CFI R6 load(1, XDATA, add(CFA_XSP16, literal(-16)))
        CFI VB load(1, XDATA, add(CFA_XSP16, literal(-15)))
        CFI V0 load(1, XDATA, add(CFA_XSP16, literal(-14)))
        CFI V1 load(1, XDATA, add(CFA_XSP16, literal(-13)))
        CFI V2 load(1, XDATA, add(CFA_XSP16, literal(-12)))
        CFI V3 load(1, XDATA, add(CFA_XSP16, literal(-11)))
        CFI V4 load(1, XDATA, add(CFA_XSP16, literal(-10)))
        CFI V5 load(1, XDATA, add(CFA_XSP16, literal(-9)))
        CFI V6 load(1, XDATA, add(CFA_XSP16, literal(-8)))
        CFI V7 load(1, XDATA, add(CFA_XSP16, literal(-7)))
        CFI R7 load(1, XDATA, add(CFA_XSP16, literal(-6)))
        CFI ?RET_LOW load(1, XDATA, add(CFA_XSP16, literal(-5)))
        CFI ?RET_HIGH load(1, XDATA, add(CFA_XSP16, literal(-4)))
        CFI ?BRET_EXT load(1, XDATA, add(CFA_XSP16, literal(-3)))
        CFI DPL0 load(1, XDATA, add(CFA_XSP16, literal(-2)))
        CFI DPH0 load(1, XDATA, add(CFA_XSP16, literal(-1)))
        CFI CFA_SP SP+0
        CFI CFA_XSP16 add(XSP16, 18)
        CFI Block cfiCond17 Using cfiCommon0
        CFI (cfiCond17) NoFunction
        CFI (cfiCond17) Conditional ??CrossCallReturnLabel_5
        CFI (cfiCond17) DPL0 Frame(CFA_SP, 4)
        CFI (cfiCond17) DPH0 Frame(CFA_SP, 5)
        CFI (cfiCond17) CFA_SP SP+-5
        CFI Block cfiPicker18 Using cfiCommon1
        CFI (cfiPicker18) NoFunction
        CFI (cfiPicker18) Picker
        MOV     DPTR,#myBatteryCheckPeriod
        LCALL   ??Subroutine8_0 & 0xFFFF
??CrossCallReturnLabel_14:
        MOV     R2,#0x4
        LCALL   ?Subroutine5 & 0xFFFF
??CrossCallReturnLabel_10:
        RET
        CFI EndBlock cfiCond16
        CFI EndBlock cfiCond17
        CFI EndBlock cfiPicker18

        RSEG BANKED_CODE:CODE:NOROOT(0)
?Subroutine5:
        CFI Block cfiCond19 Using cfiCommon0
        CFI NoFunction
        CFI Conditional ??CrossCallReturnLabel_9, ??CrossCallReturnLabel_6
        CFI DPL0 Frame(CFA_SP, 4)
        CFI DPH0 Frame(CFA_SP, 5)
        CFI CFA_SP SP+-5
        CFI Block cfiCond20 Using cfiCommon0
        CFI (cfiCond20) NoFunction
        CFI (cfiCond20) Conditional ??CrossCallReturnLabel_9, ??CrossCallReturnLabel_7
        CFI (cfiCond20) DPL0 Frame(CFA_SP, 4)
        CFI (cfiCond20) DPH0 Frame(CFA_SP, 5)
        CFI (cfiCond20) CFA_SP SP+-5
        CFI Block cfiCond21 Using cfiCommon0
        CFI (cfiCond21) NoFunction
        CFI (cfiCond21) Conditional ??CrossCallReturnLabel_9, ??CrossCallReturnLabel_8
        CFI (cfiCond21) DPL0 Frame(CFA_SP, 4)
        CFI (cfiCond21) DPH0 Frame(CFA_SP, 5)
        CFI (cfiCond21) CFA_SP SP+-5
        CFI Block cfiCond22 Using cfiCommon0
        CFI (cfiCond22) NoFunction
        CFI (cfiCond22) Conditional ??CrossCallReturnLabel_10, ??CrossCallReturnLabel_4
        CFI (cfiCond22) R6 load(1, XDATA, add(CFA_XSP16, literal(-16)))
        CFI (cfiCond22) VB load(1, XDATA, add(CFA_XSP16, literal(-15)))
        CFI (cfiCond22) V0 load(1, XDATA, add(CFA_XSP16, literal(-14)))
        CFI (cfiCond22) V1 load(1, XDATA, add(CFA_XSP16, literal(-13)))
        CFI (cfiCond22) V2 load(1, XDATA, add(CFA_XSP16, literal(-12)))
        CFI (cfiCond22) V3 load(1, XDATA, add(CFA_XSP16, literal(-11)))
        CFI (cfiCond22) V4 load(1, XDATA, add(CFA_XSP16, literal(-10)))
        CFI (cfiCond22) V5 load(1, XDATA, add(CFA_XSP16, literal(-9)))
        CFI (cfiCond22) V6 load(1, XDATA, add(CFA_XSP16, literal(-8)))
        CFI (cfiCond22) V7 load(1, XDATA, add(CFA_XSP16, literal(-7)))
        CFI (cfiCond22) R7 load(1, XDATA, add(CFA_XSP16, literal(-6)))
        CFI (cfiCond22) ?RET_LOW load(1, XDATA, add(CFA_XSP16, literal(-5)))
        CFI (cfiCond22) ?RET_HIGH load(1, XDATA, add(CFA_XSP16, literal(-4)))
        CFI (cfiCond22) ?BRET_EXT load(1, XDATA, add(CFA_XSP16, literal(-3)))
        CFI (cfiCond22) DPL0 load(1, XDATA, add(CFA_XSP16, literal(-2)))
        CFI (cfiCond22) DPH0 load(1, XDATA, add(CFA_XSP16, literal(-1)))
        CFI (cfiCond22) CFA_SP SP+0
        CFI (cfiCond22) CFA_XSP16 add(XSP16, 18)
        CFI Block cfiCond23 Using cfiCommon0
        CFI (cfiCond23) NoFunction
        CFI (cfiCond23) Conditional ??CrossCallReturnLabel_10, ??CrossCallReturnLabel_5
        CFI (cfiCond23) DPL0 Frame(CFA_SP, 4)
        CFI (cfiCond23) DPH0 Frame(CFA_SP, 5)
        CFI (cfiCond23) CFA_SP SP+-5
        CFI Block cfiCond24 Using cfiCommon0
        CFI (cfiCond24) NoFunction
        CFI (cfiCond24) Conditional ??CrossCallReturnLabel_11, ??CrossCallReturnLabel_2
        CFI (cfiCond24) R6 load(1, XDATA, add(CFA_XSP16, literal(-16)))
        CFI (cfiCond24) VB load(1, XDATA, add(CFA_XSP16, literal(-15)))
        CFI (cfiCond24) V0 load(1, XDATA, add(CFA_XSP16, literal(-14)))
        CFI (cfiCond24) V1 load(1, XDATA, add(CFA_XSP16, literal(-13)))
        CFI (cfiCond24) V2 load(1, XDATA, add(CFA_XSP16, literal(-12)))
        CFI (cfiCond24) V3 load(1, XDATA, add(CFA_XSP16, literal(-11)))
        CFI (cfiCond24) V4 load(1, XDATA, add(CFA_XSP16, literal(-10)))
        CFI (cfiCond24) V5 load(1, XDATA, add(CFA_XSP16, literal(-9)))
        CFI (cfiCond24) V6 load(1, XDATA, add(CFA_XSP16, literal(-8)))
        CFI (cfiCond24) V7 load(1, XDATA, add(CFA_XSP16, literal(-7)))
        CFI (cfiCond24) R7 load(1, XDATA, add(CFA_XSP16, literal(-6)))
        CFI (cfiCond24) ?RET_LOW load(1, XDATA, add(CFA_XSP16, literal(-5)))
        CFI (cfiCond24) ?RET_HIGH load(1, XDATA, add(CFA_XSP16, literal(-4)))
        CFI (cfiCond24) ?BRET_EXT load(1, XDATA, add(CFA_XSP16, literal(-3)))
        CFI (cfiCond24) DPL0 load(1, XDATA, add(CFA_XSP16, literal(-2)))
        CFI (cfiCond24) DPH0 load(1, XDATA, add(CFA_XSP16, literal(-1)))
        CFI (cfiCond24) CFA_SP SP+0
        CFI (cfiCond24) CFA_XSP16 add(XSP16, 18)
        CFI Block cfiCond25 Using cfiCommon0
        CFI (cfiCond25) NoFunction
        CFI (cfiCond25) Conditional ??CrossCallReturnLabel_11, ??CrossCallReturnLabel_3
        CFI (cfiCond25) DPL0 Frame(CFA_SP, 4)
        CFI (cfiCond25) DPH0 Frame(CFA_SP, 5)
        CFI (cfiCond25) CFA_SP SP+-5
        CFI Block cfiPicker26 Using cfiCommon1
        CFI (cfiPicker26) NoFunction
        CFI (cfiPicker26) Picker
        MOV     R3,#0x0
        MOV     DPTR,#sapi_TaskID
        MOVX    A,@DPTR
        MOV     R1,A
        LCALL   ??osal_start_timerEx?relay
        RET
        CFI EndBlock cfiCond19
        CFI EndBlock cfiCond20
        CFI EndBlock cfiCond21
        CFI EndBlock cfiCond22
        CFI EndBlock cfiCond23
        CFI EndBlock cfiCond24
        CFI EndBlock cfiCond25
        CFI EndBlock cfiPicker26

        RSEG BANKED_CODE:CODE:NOROOT(0)
?Subroutine1:
        CFI Block cfiCond27 Using cfiCommon0
        CFI NoFunction
        CFI Conditional ??CrossCallReturnLabel_2
        CFI R6 load(1, XDATA, add(CFA_XSP16, literal(-16)))
        CFI VB load(1, XDATA, add(CFA_XSP16, literal(-15)))
        CFI V0 load(1, XDATA, add(CFA_XSP16, literal(-14)))
        CFI V1 load(1, XDATA, add(CFA_XSP16, literal(-13)))
        CFI V2 load(1, XDATA, add(CFA_XSP16, literal(-12)))
        CFI V3 load(1, XDATA, add(CFA_XSP16, literal(-11)))
        CFI V4 load(1, XDATA, add(CFA_XSP16, literal(-10)))
        CFI V5 load(1, XDATA, add(CFA_XSP16, literal(-9)))
        CFI V6 load(1, XDATA, add(CFA_XSP16, literal(-8)))
        CFI V7 load(1, XDATA, add(CFA_XSP16, literal(-7)))
        CFI R7 load(1, XDATA, add(CFA_XSP16, literal(-6)))
        CFI ?RET_LOW load(1, XDATA, add(CFA_XSP16, literal(-5)))
        CFI ?RET_HIGH load(1, XDATA, add(CFA_XSP16, literal(-4)))
        CFI ?BRET_EXT load(1, XDATA, add(CFA_XSP16, literal(-3)))
        CFI DPL0 load(1, XDATA, add(CFA_XSP16, literal(-2)))
        CFI DPH0 load(1, XDATA, add(CFA_XSP16, literal(-1)))
        CFI CFA_SP SP+0
        CFI CFA_XSP16 add(XSP16, 18)
        CFI Block cfiCond28 Using cfiCommon0
        CFI (cfiCond28) NoFunction
        CFI (cfiCond28) Conditional ??CrossCallReturnLabel_3
        CFI (cfiCond28) DPL0 Frame(CFA_SP, 4)
        CFI (cfiCond28) DPH0 Frame(CFA_SP, 5)
        CFI (cfiCond28) CFA_SP SP+-5
        CFI Block cfiPicker29 Using cfiCommon1
        CFI (cfiPicker29) NoFunction
        CFI (cfiPicker29) Picker
        MOV     DPTR,#myTempReportPeriod
        LCALL   ??Subroutine8_0 & 0xFFFF
??CrossCallReturnLabel_13:
        MOV     R2,#0x2
        LCALL   ?Subroutine5 & 0xFFFF
??CrossCallReturnLabel_11:
        RET
        CFI EndBlock cfiCond27
        CFI EndBlock cfiCond28
        CFI EndBlock cfiPicker29

        RSEG BANKED_CODE:CODE:NOROOT(0)
?Subroutine4:
        CFI Block cfiCond30 Using cfiCommon0
        CFI NoFunction
        CFI Conditional ??CrossCallReturnLabel_15
        CFI DPL0 Frame(CFA_SP, 4)
        CFI DPH0 Frame(CFA_SP, 5)
        CFI CFA_SP SP+-5
        CFI Block cfiCond31 Using cfiCommon0
        CFI (cfiCond31) NoFunction
        CFI (cfiCond31) Conditional ??CrossCallReturnLabel_16
        CFI (cfiCond31) DPL0 Frame(CFA_SP, 4)
        CFI (cfiCond31) DPH0 Frame(CFA_SP, 5)
        CFI (cfiCond31) CFA_SP SP+-5
        CFI Block cfiPicker32 Using cfiCommon1
        CFI (cfiPicker32) NoFunction
        CFI (cfiPicker32) Picker
        MOV     DPTR,#myBindRetryDelay
        CFI EndBlock cfiCond30
        CFI EndBlock cfiCond31
        CFI EndBlock cfiPicker32
        REQUIRE ??Subroutine8_0
        ; // Fall through to label ??Subroutine8_0

        RSEG BANKED_CODE:CODE:NOROOT(0)
??Subroutine8_0:
        CFI Block cfiCond33 Using cfiCommon0
        CFI NoFunction
        CFI Conditional ??CrossCallReturnLabel_12
        CFI DPL0 Frame(CFA_SP, 4)
        CFI DPH0 Frame(CFA_SP, 5)
        CFI CFA_SP SP+-5
        CFI Block cfiCond34 Using cfiCommon0
        CFI (cfiCond34) NoFunction
        CFI (cfiCond34) Conditional ??CrossCallReturnLabel_14, ??CrossCallReturnLabel_4
        CFI (cfiCond34) R6 load(1, XDATA, add(CFA_XSP16, literal(-16)))
        CFI (cfiCond34) VB load(1, XDATA, add(CFA_XSP16, literal(-15)))
        CFI (cfiCond34) V0 load(1, XDATA, add(CFA_XSP16, literal(-14)))
        CFI (cfiCond34) V1 load(1, XDATA, add(CFA_XSP16, literal(-13)))
        CFI (cfiCond34) V2 load(1, XDATA, add(CFA_XSP16, literal(-12)))
        CFI (cfiCond34) V3 load(1, XDATA, add(CFA_XSP16, literal(-11)))
        CFI (cfiCond34) V4 load(1, XDATA, add(CFA_XSP16, literal(-10)))
        CFI (cfiCond34) V5 load(1, XDATA, add(CFA_XSP16, literal(-9)))
        CFI (cfiCond34) V6 load(1, XDATA, add(CFA_XSP16, literal(-8)))
        CFI (cfiCond34) V7 load(1, XDATA, add(CFA_XSP16, literal(-7)))
        CFI (cfiCond34) R7 load(1, XDATA, add(CFA_XSP16, literal(-6)))
        CFI (cfiCond34) ?RET_LOW load(1, XDATA, add(CFA_XSP16, literal(-5)))
        CFI (cfiCond34) ?RET_HIGH load(1, XDATA, add(CFA_XSP16, literal(-4)))
        CFI (cfiCond34) ?BRET_EXT load(1, XDATA, add(CFA_XSP16, literal(-3)))
        CFI (cfiCond34) DPL0 load(1, XDATA, add(CFA_XSP16, literal(-2)))
        CFI (cfiCond34) DPH0 load(1, XDATA, add(CFA_XSP16, literal(-1)))
        CFI (cfiCond34) CFA_SP SP+0
        CFI (cfiCond34) CFA_XSP16 add(XSP16, 18)
        CFI Block cfiCond35 Using cfiCommon0
        CFI (cfiCond35) NoFunction
        CFI (cfiCond35) Conditional ??CrossCallReturnLabel_14, ??CrossCallReturnLabel_5
        CFI (cfiCond35) DPL0 Frame(CFA_SP, 4)
        CFI (cfiCond35) DPH0 Frame(CFA_SP, 5)
        CFI (cfiCond35) CFA_SP SP+-5
        CFI Block cfiCond36 Using cfiCommon0
        CFI (cfiCond36) NoFunction
        CFI (cfiCond36) Conditional ??CrossCallReturnLabel_13, ??CrossCallReturnLabel_2
        CFI (cfiCond36) R6 load(1, XDATA, add(CFA_XSP16, literal(-16)))
        CFI (cfiCond36) VB load(1, XDATA, add(CFA_XSP16, literal(-15)))
        CFI (cfiCond36) V0 load(1, XDATA, add(CFA_XSP16, literal(-14)))
        CFI (cfiCond36) V1 load(1, XDATA, add(CFA_XSP16, literal(-13)))
        CFI (cfiCond36) V2 load(1, XDATA, add(CFA_XSP16, literal(-12)))
        CFI (cfiCond36) V3 load(1, XDATA, add(CFA_XSP16, literal(-11)))
        CFI (cfiCond36) V4 load(1, XDATA, add(CFA_XSP16, literal(-10)))
        CFI (cfiCond36) V5 load(1, XDATA, add(CFA_XSP16, literal(-9)))
        CFI (cfiCond36) V6 load(1, XDATA, add(CFA_XSP16, literal(-8)))
        CFI (cfiCond36) V7 load(1, XDATA, add(CFA_XSP16, literal(-7)))
        CFI (cfiCond36) R7 load(1, XDATA, add(CFA_XSP16, literal(-6)))
        CFI (cfiCond36) ?RET_LOW load(1, XDATA, add(CFA_XSP16, literal(-5)))
        CFI (cfiCond36) ?RET_HIGH load(1, XDATA, add(CFA_XSP16, literal(-4)))
        CFI (cfiCond36) ?BRET_EXT load(1, XDATA, add(CFA_XSP16, literal(-3)))
        CFI (cfiCond36) DPL0 load(1, XDATA, add(CFA_XSP16, literal(-2)))
        CFI (cfiCond36) DPH0 load(1, XDATA, add(CFA_XSP16, literal(-1)))
        CFI (cfiCond36) CFA_SP SP+0
        CFI (cfiCond36) CFA_XSP16 add(XSP16, 18)
        CFI Block cfiCond37 Using cfiCommon0
        CFI (cfiCond37) NoFunction
        CFI (cfiCond37) Conditional ??CrossCallReturnLabel_13, ??CrossCallReturnLabel_3
        CFI (cfiCond37) DPL0 Frame(CFA_SP, 4)
        CFI (cfiCond37) DPH0 Frame(CFA_SP, 5)
        CFI (cfiCond37) CFA_SP SP+-5
        CFI Block cfiCond38 Using cfiCommon0
        CFI (cfiCond38) NoFunction
        CFI (cfiCond38) Conditional ??CrossCallReturnLabel_15
        CFI (cfiCond38) DPL0 Frame(CFA_SP, 4)
        CFI (cfiCond38) DPH0 Frame(CFA_SP, 5)
        CFI (cfiCond38) CFA_SP SP+-5
        CFI Block cfiCond39 Using cfiCommon0
        CFI (cfiCond39) NoFunction
        CFI (cfiCond39) Conditional ??CrossCallReturnLabel_16
        CFI (cfiCond39) DPL0 Frame(CFA_SP, 4)
        CFI (cfiCond39) DPH0 Frame(CFA_SP, 5)
        CFI (cfiCond39) CFA_SP SP+-5
        CFI Block cfiPicker40 Using cfiCommon1
        CFI (cfiPicker40) NoFunction
        CFI (cfiPicker40) Picker
        MOVX    A,@DPTR
        MOV     R4,A
        INC     DPTR
        MOVX    A,@DPTR
        MOV     R5,A
        RET
        CFI EndBlock cfiCond33
        CFI EndBlock cfiCond34
        CFI EndBlock cfiCond35
        CFI EndBlock cfiCond36
        CFI EndBlock cfiCond37
        CFI EndBlock cfiCond38
        CFI EndBlock cfiCond39
        CFI EndBlock cfiPicker40
//  348 /******************************************************************************
//  349  * @fn          zb_AllowBindConfirm
//  350  *
//  351  * @brief       Indicates when another device attempted to bind to this device
//  352  *
//  353  * @param
//  354  *
//  355  * @return      none
//  356  */

        RSEG BANKED_CODE:CODE:NOROOT(0)
//  357 void zb_AllowBindConfirm( uint16 source )
zb_AllowBindConfirm:
        CFI Block cfiBlock41 Using cfiCommon0
        CFI Function zb_AllowBindConfirm
//  358 {
        ; Saved register size: 0
        ; Auto size: 0
//  359   (void)source; 
//  360 }
        LJMP    ?BRET
        CFI EndBlock cfiBlock41
//  361 /******************************************************************************
//  362  * @fn          zb_FindDeviceConfirm
//  363  *
//  364  * @brief       The zb_FindDeviceConfirm callback function is called by the
//  365  *              ZigBee stack when a find device operation completes.
//  366  *
//  367  * @param       searchType - The type of search that was performed.
//  368  *              searchKey - Value that the search was executed on.
//  369  *              result - The result of the search.
//  370  *
//  371  * @return      none
//  372  */

        RSEG BANKED_CODE:CODE:NOROOT(0)
//  373 void zb_FindDeviceConfirm( uint8 searchType, uint8 *searchKey, uint8 *result )
zb_FindDeviceConfirm:
        CFI Block cfiBlock42 Using cfiCommon0
        CFI Function zb_FindDeviceConfirm
//  374 {
        ; Saved register size: 0
        ; Auto size: 0
//  375   // Add your code here and remove the "(void)" lines.
//  376   (void)searchType;
//  377   (void)searchKey;
//  378   (void)result;
//  379 }
        LJMP    ?BRET
        CFI EndBlock cfiBlock42
//  380 
//  381 /******************************************************************************
//  382  * @fn          zb_ReceiveDataIndication
//  383  *
//  384  * @brief       The zb_ReceiveDataIndication callback function is called
//  385  *              asynchronously by the ZigBee stack to notify the application
//  386  *              when data is received from a peer device.
//  387  *
//  388  * @param       source - The short address of the peer device that sent the data
//  389  *              command - The commandId associated with the data
//  390  *              len - The number of bytes in the pData parameter
//  391  *              pData - The data sent by the peer device
//  392  *
//  393  * @return      none
//  394  */

        RSEG BANKED_CODE:CODE:NOROOT(0)
//  395 void zb_ReceiveDataIndication( uint16 source, uint16 command, uint16 len, uint8 *pData  )
zb_ReceiveDataIndication:
        CFI Block cfiBlock43 Using cfiCommon0
        CFI Function zb_ReceiveDataIndication
//  396 {
        ; Saved register size: 0
        ; Auto size: 0
//  397   // Add your code here and remove the "(void)" lines.
//  398   (void)source;
//  399   (void)command;
//  400   (void)len;
//  401   (void)pData;
//  402 }
        LJMP    ?BRET
        CFI EndBlock cfiBlock43

        RSEG XDATA_ID:CODE:NOROOT(0)
        DATA
`?<Initializer for myStartRetryDelay>`:
        DW 10000

        RSEG XDATA_ID:CODE:NOROOT(0)
        DATA
`?<Initializer for myTempReportPeriod>`:
        DW 5

        RSEG XDATA_ID:CODE:NOROOT(0)
        DATA
`?<Initializer for myBatteryCheckPeriod>`:
        DW 21000

        RSEG XDATA_ID:CODE:NOROOT(0)
        DATA
`?<Initializer for myBindRetryDelay>`:
        DW 10000

        RSEG XDATA_ROM_C:CONST:REORDER:NOROOT(0)
        DATA
__Constant_42160000:
        DD 42160000H

        RSEG BANK_RELAYS:CODE:REORDER:NOROOT(0)
??zb_HandleOsalEvent?relay:
        LCALL   ?BDISPATCH
        DATA
        DC24    zb_HandleOsalEvent

        RSEG BANK_RELAYS:CODE:REORDER:NOROOT(0)
??zb_HandleKeys?relay:
        LCALL   ?BDISPATCH
        DATA
        DC24    zb_HandleKeys

        RSEG BANK_RELAYS:CODE:REORDER:NOROOT(0)
??zb_StartConfirm?relay:
        LCALL   ?BDISPATCH
        DATA
        DC24    zb_StartConfirm

        RSEG BANK_RELAYS:CODE:REORDER:NOROOT(0)
??zb_SendDataConfirm?relay:
        LCALL   ?BDISPATCH
        DATA
        DC24    zb_SendDataConfirm

        RSEG BANK_RELAYS:CODE:REORDER:NOROOT(0)
??zb_BindConfirm?relay:
        LCALL   ?BDISPATCH
        DATA
        DC24    zb_BindConfirm

        RSEG BANK_RELAYS:CODE:REORDER:NOROOT(0)
??zb_AllowBindConfirm?relay:
        LCALL   ?BDISPATCH
        DATA
        DC24    zb_AllowBindConfirm

        RSEG BANK_RELAYS:CODE:REORDER:NOROOT(0)
??zb_FindDeviceConfirm?relay:
        LCALL   ?BDISPATCH
        DATA
        DC24    zb_FindDeviceConfirm

        RSEG BANK_RELAYS:CODE:REORDER:NOROOT(0)
??zb_ReceiveDataIndication?relay:
        LCALL   ?BDISPATCH
        DATA
        DC24    zb_ReceiveDataIndication

        END
//  403 /******************************************************************************
//  404  * @fn          my_StartReporting
//  405  *
//  406  * @brief       Starts the process to periodically report sensor readings
//  407  *
//  408  * @param
//  409  *
//  410  * @return      none
//  411  */
//  412 void myApp_StartReporting( void )
//  413 {
//  414   osal_start_timerEx( sapi_TaskID, MY_REPORT_TEMP_EVT, myTempReportPeriod );
//  415   osal_start_timerEx( sapi_TaskID, MY_REPORT_BATT_EVT, myBatteryCheckPeriod );
//  416   HalLedSet( HAL_LED_1, HAL_LED_MODE_ON );
//  417 
//  418 }
//  419 /******************************************************************************
//  420  * @fn          my_StopReporting
//  421  *
//  422  * @brief       Stops the process to periodically report sensor readings
//  423  *
//  424  * @param
//  425  *
//  426  * @return      none
//  427  */
//  428 void myApp_StopReporting( void )
//  429 {
//  430   osal_stop_timerEx( sapi_TaskID, MY_REPORT_TEMP_EVT );
//  431   osal_stop_timerEx( sapi_TaskID, MY_REPORT_BATT_EVT );
//  432   HalLedSet( HAL_LED_1, HAL_LED_MODE_OFF );
//  433 }
//  434 /******************************************************************************
//  435  * @fn          myApp_ReadBattery
//  436  *
//  437  * @brief       Reports battery sensor reading
//  438  *
//  439  * @param
//  440  *
//  441  * @return
//  442  ******************************************************************************/
//  443 uint8 myApp_ReadBattery( void )
//  444 {
//  445 
//  446 #if defined (HAL_MCU_CC2430) || defined (HAL_MCU_CC2530)
//  447 
//  448   uint16 value;
//  449 
//  450   /* Clear ADC interrupt flag */
//  451   ADCIF = 0;
//  452 
//  453   ADCCON3 = (HAL_ADC_REF_125V | HAL_ADC_DEC_128 | HAL_ADC_CHN_VDD3);
//  454 
//  455   /* Wait for the conversion to finish */
//  456   while ( !ADCIF );
//  457 
//  458   /* Get the result */
//  459   value = ADCL;
//  460   value |= ((uint16) ADCH) << 8;
//  461 
//  462   /*
//  463    * value now contains measurement of Vdd/3
//  464    * 0 indicates 0V and 32767 indicates 1.25V
//  465    * voltage = (value*3*1.25)/32767 volts
//  466    * we will multiply by this by 10 to allow units of 0.1 volts
//  467    */
//  468 
//  469   value = value >> 6;   // divide first by 2^6
//  470   value = (uint16)(value * 37.5);
//  471   value = value >> 9;   // ...and later by 2^9...to prevent overflow during multiplication
//  472 
//  473   return value;
//  474 
//  475 #endif    // CC2430 or CC2530
//  476 
//  477 #if defined HAL_MCU_MSP430
//  478 
//  479   uint16 value;
//  480 
//  481 /*
//  482   There are more than MSP430 board now. Idealy, ADC read should be called
//  483 */
//  484 #if defined (HAL_BOARD_F5438)
//  485 
//  486   value = HalAdcRead (HAL_ADC_CHANNEL_VDD, HAL_ADC_RESOLUTION_14);
//  487   value = value * 50;
//  488   value = value / 4096;
//  489 
//  490 #else
//  491 
//  492   ADC12CTL0 = ADC12ON+SHT0_2+REFON;             // Turn on and set up ADC12
//  493   ADC12CTL1 = SHP;                              // Use sampling timer
//  494   ADC12MCTL0 = SREF_1+INCH_11;                  // Vr+=Vref+
//  495 
//  496   ADC12CTL0 |= ENC | ADC12SC;                   // Start conversion
//  497   while ((ADC12IFG & BIT0)==0);
//  498 
//  499   value = ADC12MEM0;
//  500 
//  501   /*
//  502    * value now contains measurement of AVcc/2
//  503    * value is in range 0 to 4095 indicating voltage from 0 to 1.5V
//  504    * voltage = (value*2*1.5)/4095 volts
//  505    * we will multiply by this by 10 to allow units of 0.1 volts
//  506    */
//  507 
//  508   value = value >> 1;     // value is now in range of 0 to 2048
//  509   value = value * 30;
//  510   value = value >> 11;
//  511 
//  512 #endif
//  513 
//  514   return ( value );
//  515 
//  516 #endif // MSP430
//  517 
//  518 #if defined HAL_MCU_AVR
//  519 
//  520   // If platform doesnt support a battery sensor, just return random value
//  521 
//  522   uint8 value;
//  523   value = 20 + ( osal_rand() & 0x000F );
//  524   return ( value );
//  525 
//  526 #endif  // AVR
//  527 
//  528 }
//  529 /******************************************************************************
//  530  * @fn          myApp_ReadTemperature
//  531  *
//  532  * @brief       Reports temperature sensor reading
//  533  *
//  534  * @param
//  535  *
//  536  * @return
//  537  ******************************************************************************/
//  538 uint8 myApp_ReadTemperature( void )
//  539 {
//  540 
//  541 #if defined (HAL_MCU_CC2430) || defined (HAL_MCU_CC2530)
//  542 
//  543   uint16 value;
//  544 
//  545   /* Clear ADC interrupt flag */
//  546   ADCIF = 0;
//  547 
//  548   ADCCON3 = (HAL_ADC_REF_125V | HAL_ADC_DEC_512 | HAL_ADC_CHN_TEMP);
//  549 
//  550   /* Wait for the conversion to finish */
//  551   while ( !ADCIF );
//  552 
//  553   /* Get the result */
//  554   value = ADCL;
//  555   value |= ((uint16) ADCH) << 8;
//  556 
//  557   /*
//  558    * value ranges from 0 to 0x8000 indicating 0V and 1.25V
//  559    * VOLTAGE_AT_TEMP_ZERO = 0.743 V = 19477
//  560    * TEMP_COEFFICIENT = 0.0024 V/C = 62.9 /C
//  561    * These parameters are typical values and need to be calibrated
//  562    * See the datasheet for the appropriate chip for more details
//  563    * also, the math below may not be very accurate
//  564    */
//  565 #if defined (HAL_MCU_CC2430)
//  566   #define VOLTAGE_AT_TEMP_ZERO      19477   // 0.743 V
//  567   #define TEMP_COEFFICIENT          62.9    // 0.0024 V/C
//  568 #elif defined (HAL_MCU_CC2530)
//  569     /* Assume ADC = 5158 at 0C and ADC = 15/C */
//  570   #define VOLTAGE_AT_TEMP_ZERO      5158
//  571   #define TEMP_COEFFICIENT          14
//  572 #endif
//  573 
//  574   // limit min temp to 0 C
//  575   if ( value < VOLTAGE_AT_TEMP_ZERO )
//  576     value = VOLTAGE_AT_TEMP_ZERO;
//  577 
//  578   value = value - VOLTAGE_AT_TEMP_ZERO;
//  579 
//  580   // limit max temp to 99 C
//  581   if ( value > TEMP_COEFFICIENT * 99 )
//  582     value = TEMP_COEFFICIENT * 99;
//  583 
//  584   return ( (uint8)(value/TEMP_COEFFICIENT) );
//  585 
//  586 #endif  // CC2430 || CC2530
//  587 
//  588 
//  589 #if defined HAL_MCU_MSP430
//  590 
//  591   uint16 value;
//  592 
//  593 /*
//  594   There are more than MSP430 board now. Idealy, ADC read should be called
//  595 */
//  596 #if defined (HAL_BOARD_F5438)
//  597 
//  598   long multiplier, offset;
//  599 
//  600   value = HalAdcRead (HAL_ADC_CHANNEL_TEMP, HAL_ADC_RESOLUTION_14);
//  601 
//  602   multiplier = (long) 7040 * 9 /5 ;
//  603   offset = (long) 2620 * 9 / 5 - 320;
//  604 
//  605   value = (long) value * multiplier/4096 - offset;
//  606 
//  607   return (value);
//  608 
//  609 #else
//  610   ADC12CTL0 = ADC12ON+SHT0_7+REFON;         // Turn on and set up ADC12
//  611   ADC12CTL1 = SHP;                          // Use sampling timer
//  612   ADC12MCTL0 = SREF_1+INCH_10;              // Vr+=Vref+
//  613 
//  614   ADC12CTL0 |= ENC | ADC12SC;               // Start conversion
//  615   while ((ADC12IFG & BIT0)==0);
//  616 
//  617   value = ADC12MEM0;
//  618 
//  619   /*
//  620    * value ranges from 0 to 0x0FFF indicating 0V and 1.5V
//  621    * VOLTAGE_AT_TEMP_ZERO = 0.986 V = 2692
//  622    * TEMP_COEFFICIENT = 0.00355 V/C = 9.69 /C
//  623    * These parameters are typical values and need to be calibrated
//  624    * See the datasheet for the appropriate chip for more details
//  625    * also, the math below is not very accurate
//  626    */
//  627 
//  628 #define VOLTAGE_AT_TEMP_ZERO      2692      // 0.986 V
//  629 #define TEMP_COEFFICIENT          9.69      // 0.00355 V/C
//  630 
//  631   // limit min temp to 0 C
//  632   if ( value < VOLTAGE_AT_TEMP_ZERO )
//  633     value = VOLTAGE_AT_TEMP_ZERO;
//  634 
//  635   value = value - VOLTAGE_AT_TEMP_ZERO;
//  636 
//  637   // limit max temp to 99 C
//  638   if ( value > TEMP_COEFFICIENT * 99 )
//  639     value = TEMP_COEFFICIENT * 99;
//  640 
//  641   return ( (uint8)(value/TEMP_COEFFICIENT) );
//  642 #endif // HAL_BOARD_F5438
//  643 
//  644 #endif // MSP430
//  645 
//  646 #if defined HAL_MCU_AVR
//  647 
//  648   // If platform doesnt support a temperature sensor, just return random value
//  649   uint8 value;
//  650   value = 20 + ( osal_rand() & 0x000F );
//  651   return ( value );
//  652 
//  653 #endif  // AVR
//  654 
//  655 }
// 
// 662 bytes in segment BANKED_CODE
//  48 bytes in segment BANK_RELAYS
//   4 bytes in segment SFR_AN
//   8 bytes in segment XDATA_I
//   8 bytes in segment XDATA_ID
//  18 bytes in segment XDATA_ROM_C
//   1 byte  in segment XDATA_Z
// 
// 718 bytes of CODE  memory
//  14 bytes of CONST memory (+ 4 bytes shared)
//   0 bytes of DATA  memory (+ 4 bytes shared)
//   9 bytes of XDATA memory
//
//Errors: none
//Warnings: none
